
program.elf:     file format elf32-tradlittlemips


Disassembly of section .bootrom:

9fc00000 <__reset_vector>:
9fc00000:	40804800 	mtc0	zero,c0_count

9fc00004 <init_cp0>:
9fc00004:	3c030040 	lui	v1,0x40
9fc00008:	34630004 	ori	v1,v1,0x4
9fc0000c:	40836000 	mtc0	v1,c0_status
9fc00010:	40806800 	mtc0	zero,c0_cause
9fc00014:	40805800 	mtc0	zero,c0_compare

9fc00018 <init_tlb>:
9fc00018:	40038000 	mfc0	v1,c0_config
9fc0001c:	7c6311c0 	ext	v1,v1,0x7,0x3
9fc00020:	24070001 	li	a3,1
9fc00024:	1467000e 	bne	v1,a3,9fc00060 <init_icache>
9fc00028:	40028001 	mfc0	v0,c0_config1
9fc0002c:	7c432e40 	ext	v1,v0,0x19,0x6
9fc00030:	40801000 	mtc0	zero,c0_entrylo0
9fc00034:	40801800 	mtc0	zero,c0_entrylo1
9fc00038:	40802800 	mtc0	zero,c0_pagemask
9fc0003c:	40803000 	mtc0	zero,c0_wired
9fc00040:	3c048000 	lui	a0,0x8000

9fc00044 <next_tlb_entry>:
9fc00044:	40830000 	mtc0	v1,c0_index
9fc00048:	40845000 	mtc0	a0,c0_entryhi
9fc0004c:	000000c0 	ehb
9fc00050:	42000002 	tlbwi
9fc00054:	20844000 	addi	a0,a0,16384
9fc00058:	1460fffa 	bnez	v1,9fc00044 <next_tlb_entry>
9fc0005c:	2063ffff 	addi	v1,v1,-1

9fc00060 <init_icache>:
9fc00060:	40028001 	mfc0	v0,c0_config1
9fc00064:	7c4314c0 	ext	v1,v0,0x13,0x3
9fc00068:	10600010 	beqz	v1,9fc000ac <done_icache>
9fc0006c:	00000000 	nop
9fc00070:	24060002 	li	a2,2
9fc00074:	00661804 	sllv	v1,a2,v1
9fc00078:	7c441580 	ext	a0,v0,0x16,0x3
9fc0007c:	24060040 	li	a2,64
9fc00080:	00862004 	sllv	a0,a2,a0
9fc00084:	7c451400 	ext	a1,v0,0x10,0x3
9fc00088:	20a50001 	addi	a1,a1,1
9fc0008c:	70852002 	mul	a0,a0,a1
9fc00090:	3c068000 	lui	a2,0x8000
9fc00094:	4080e000 	mtc0	zero,c0_taglo
9fc00098:	00803825 	move	a3,a0

9fc0009c <next_icache_tag>:
9fc0009c:	bcc80000 	cache	0x8,0(a2)
9fc000a0:	20e7ffff 	addi	a3,a3,-1
9fc000a4:	14e0fffd 	bnez	a3,9fc0009c <next_icache_tag>
9fc000a8:	00c33020 	add	a2,a2,v1

9fc000ac <done_icache>:
9fc000ac:	40028000 	mfc0	v0,c0_config
9fc000b0:	24030003 	li	v1,3
9fc000b4:	7c621004 	ins	v0,v1,0x0,0x3
9fc000b8:	40828000 	mtc0	v0,c0_config
9fc000bc:	3c069fc0 	lui	a2,0x9fc0
9fc000c0:	24c600cc 	addiu	a2,a2,204
9fc000c4:	00c00008 	jr	a2
9fc000c8:	000000c0 	ehb

9fc000cc <init_dcache>:
9fc000cc:	40028001 	mfc0	v0,c0_config1
9fc000d0:	7c431280 	ext	v1,v0,0xa,0x3
9fc000d4:	10600011 	beqz	v1,9fc0011c <done_dcache>
9fc000d8:	00000000 	nop
9fc000dc:	24060002 	li	a2,2
9fc000e0:	00661804 	sllv	v1,a2,v1
9fc000e4:	7c441340 	ext	a0,v0,0xd,0x3
9fc000e8:	24060040 	li	a2,64
9fc000ec:	00862004 	sllv	a0,a2,a0
9fc000f0:	7c4511c0 	ext	a1,v0,0x7,0x3
9fc000f4:	20a50001 	addi	a1,a1,1
9fc000f8:	70852002 	mul	a0,a0,a1
9fc000fc:	3c068000 	lui	a2,0x8000
9fc00100:	4080e000 	mtc0	zero,c0_taglo
9fc00104:	4080e002 	mtc0	zero,c0_taglo1
9fc00108:	00803825 	move	a3,a0

9fc0010c <next_dcache_tag>:
9fc0010c:	bcc90000 	cache	0x9,0(a2)
9fc00110:	20e7ffff 	addi	a3,a3,-1
9fc00114:	14e0fffd 	bnez	a3,9fc0010c <next_dcache_tag>
9fc00118:	00c33020 	add	a2,a2,v1

9fc0011c <done_dcache>:
9fc0011c:	3c1f9fc0 	lui	ra,0x9fc0
9fc00120:	27ff013c 	addiu	ra,ra,316
9fc00124:	00002025 	move	a0,zero
9fc00128:	3c029fc0 	lui	v0,0x9fc0
9fc0012c:	24420144 	addiu	v0,v0,324
9fc00130:	4082f000 	mtc0	v0,c0_errorepc
9fc00134:	000000c0 	ehb
9fc00138:	42000018 	eret

9fc0013c <all_done>:
9fc0013c:	1000ffff 	b	9fc0013c <all_done>
9fc00140:	00000000 	nop

9fc00144 <_start>:
9fc00144:	03e08025 	move	s0,ra
9fc00148:	3c1c8001 	lui	gp,0x8001
9fc0014c:	279c8770 	addiu	gp,gp,-30864
9fc00150:	3c1d8004 	lui	sp,0x8004
9fc00154:	27bd0000 	addiu	sp,sp,0
9fc00158:	3c028000 	lui	v0,0x8000
9fc0015c:	24420770 	addiu	v0,v0,1904
9fc00160:	3c038000 	lui	v1,0x8000
9fc00164:	24630770 	addiu	v1,v1,1904
9fc00168:	10430005 	beq	v0,v1,9fc00180 <_start+0x3c>
9fc0016c:	00000000 	nop
9fc00170:	24420004 	addiu	v0,v0,4
9fc00174:	ac40fffc 	sw	zero,-4(v0)
9fc00178:	1443fffd 	bne	v0,v1,9fc00170 <_start+0x2c>
9fc0017c:	00000000 	nop
9fc00180:	24040000 	li	a0,0
9fc00184:	27bdfff0 	addiu	sp,sp,-16
9fc00188:	40026000 	mfc0	v0,c0_status
9fc0018c:	7c02b584 	ins	v0,zero,0x16,0x1
9fc00190:	40826000 	mtc0	v0,c0_status
9fc00194:	000000c0 	ehb
9fc00198:	3c088000 	lui	t0,0x8000
9fc0019c:	25080500 	addiu	t0,t0,1280
9fc001a0:	0100f809 	jalr	t0
9fc001a4:	00000000 	nop
9fc001a8:	0200f825 	move	ra,s0
9fc001ac:	03e00008 	jr	ra
9fc001b0:	00000000 	nop
9fc001b4:	00000000 	nop

Disassembly of section .exception_vector:

80000000 <__exception_entry>:
80000000:	3c1b0000 	lui	k1,0x0
80000004:	277b0000 	addiu	k1,k1,0
80000008:	1360fffd 	beqz	k1,80000000 <__exception_entry>
8000000c:	00000000 	nop
80000010:	03600008 	jr	k1
80000014:	00000000 	nop
	...

80000080 <__xtlb_refill_loop>:
80000080:	3c1b0000 	lui	k1,0x0
80000084:	277b0000 	addiu	k1,k1,0
80000088:	1360fffd 	beqz	k1,80000080 <__xtlb_refill_loop>
8000008c:	00000000 	nop
80000090:	03600008 	jr	k1
80000094:	00000000 	nop
	...

80000100 <__cache_error_loop>:
80000100:	3c1b0000 	lui	k1,0x0
80000104:	277b0000 	addiu	k1,k1,0
80000108:	1360fffd 	beqz	k1,80000100 <__cache_error_loop>
8000010c:	00000000 	nop
80000110:	03600008 	jr	k1
80000114:	00000000 	nop
	...

80000180 <__general_exception_loop>:
80000180:	3c1b0000 	lui	k1,0x0
80000184:	277b0000 	addiu	k1,k1,0
80000188:	1360fffd 	beqz	k1,80000180 <__general_exception_loop>
8000018c:	00000000 	nop
80000190:	03600008 	jr	k1
80000194:	00000000 	nop
	...

Disassembly of section .text:

80000200 <__exception_handle>:
80000200:	00000000 	nop

80000204 <ISPRAM_Init>:
80000204:	27bdfff8 	addiu	sp,sp,-8
80000208:	afbe0004 	sw	s8,4(sp)
8000020c:	03a0f025 	move	s8,sp
80000210:	00000000 	nop
80000214:	400cd000 	mfc0	t4,c0_errctl
80000218:	3c0d1000 	lui	t5,0x1000
8000021c:	018d6025 	or	t4,t4,t5
80000220:	408cd000 	mtc0	t4,c0_errctl
80000224:	00000000 	nop
80000228:	3c0b0000 	lui	t3,0x0
8000022c:	408be000 	mtc0	t3,c0_taglo
80000230:	3c0b248f 	lui	t3,0x248f
80000234:	408be001 	mtc0	t3,c0_datalo
80000238:	bc080000 	cache	0x8,0(zero)
8000023c:	3c0b24b8 	lui	t3,0x24b8
80000240:	408be001 	mtc0	t3,c0_datalo
80000244:	bc080004 	cache	0x8,4(zero)
80000248:	3c0b3c0c 	lui	t3,0x3c0c
8000024c:	356b007f 	ori	t3,t3,0x7f
80000250:	408be001 	mtc0	t3,c0_datalo
80000254:	bc080008 	cache	0x8,8(zero)
80000258:	3c0b358c 	lui	t3,0x358c
8000025c:	356bffff 	ori	t3,t3,0xffff
80000260:	408be001 	mtc0	t3,c0_datalo
80000264:	bc08000c 	cache	0x8,12(zero)
80000268:	3c0b01ec 	lui	t3,0x1ec
8000026c:	356b4024 	ori	t3,t3,0x4024
80000270:	408be001 	mtc0	t3,c0_datalo
80000274:	bc080010 	cache	0x8,16(zero)
80000278:	3c0b030c 	lui	t3,0x30c
8000027c:	356b4824 	ori	t3,t3,0x4824
80000280:	408be001 	mtc0	t3,c0_datalo
80000284:	bc080014 	cache	0x8,20(zero)
80000288:	3c0b3c0c 	lui	t3,0x3c0c
8000028c:	356b0080 	ori	t3,t3,0x80
80000290:	408be001 	mtc0	t3,c0_datalo
80000294:	bc080018 	cache	0x8,24(zero)
80000298:	3c0b010c 	lui	t3,0x10c
8000029c:	356b4025 	ori	t3,t3,0x4025
800002a0:	408be001 	mtc0	t3,c0_datalo
800002a4:	bc08001c 	cache	0x8,28(zero)
800002a8:	3c0b012c 	lui	t3,0x12c
800002ac:	356b4825 	ori	t3,t3,0x4825
800002b0:	408be001 	mtc0	t3,c0_datalo
800002b4:	bc080020 	cache	0x8,32(zero)
800002b8:	3c0b3c0c 	lui	t3,0x3c0c
800002bc:	356b7f80 	ori	t3,t3,0x7f80
800002c0:	408be001 	mtc0	t3,c0_datalo
800002c4:	bc080024 	cache	0x8,36(zero)
800002c8:	3c0b01ec 	lui	t3,0x1ec
800002cc:	356b5024 	ori	t3,t3,0x5024
800002d0:	408be001 	mtc0	t3,c0_datalo
800002d4:	bc080028 	cache	0x8,40(zero)
800002d8:	3c0b000a 	lui	t3,0xa
800002dc:	356b55c2 	ori	t3,t3,0x55c2
800002e0:	408be001 	mtc0	t3,c0_datalo
800002e4:	bc08002c 	cache	0x8,44(zero)
800002e8:	3c0b030c 	lui	t3,0x30c
800002ec:	356b5824 	ori	t3,t3,0x5824
800002f0:	408be001 	mtc0	t3,c0_datalo
800002f4:	bc080030 	cache	0x8,48(zero)
800002f8:	3c0b000b 	lui	t3,0xb
800002fc:	356b5dc2 	ori	t3,t3,0x5dc2
80000300:	408be001 	mtc0	t3,c0_datalo
80000304:	bc080034 	cache	0x8,52(zero)
80000308:	3c0b114b 	lui	t3,0x114b
8000030c:	356b000c 	ori	t3,t3,0xc
80000310:	408be001 	mtc0	t3,c0_datalo
80000314:	bc080038 	cache	0x8,56(zero)
80000318:	3c0b0000 	lui	t3,0x0
8000031c:	356b0000 	ori	t3,t3,0x0
80000320:	408be001 	mtc0	t3,c0_datalo
80000324:	bc08003c 	cache	0x8,60(zero)
80000328:	3c0b014b 	lui	t3,0x14b
8000032c:	356b082b 	ori	t3,t3,0x82b
80000330:	408be001 	mtc0	t3,c0_datalo
80000334:	bc080040 	cache	0x8,64(zero)
80000338:	3c0b1020 	lui	t3,0x1020
8000033c:	356b0006 	ori	t3,t3,0x6
80000340:	408be001 	mtc0	t3,c0_datalo
80000344:	bc080044 	cache	0x8,68(zero)
80000348:	3c0b0000 	lui	t3,0x0
8000034c:	356b0000 	ori	t3,t3,0x0
80000350:	408be001 	mtc0	t3,c0_datalo
80000354:	bc080048 	cache	0x8,72(zero)
80000358:	3c0b016a 	lui	t3,0x16a
8000035c:	356b6022 	ori	t3,t3,0x6022
80000360:	408be001 	mtc0	t3,c0_datalo
80000364:	bc08004c 	cache	0x8,76(zero)
80000368:	3c0b0188 	lui	t3,0x188
8000036c:	356b4007 	ori	t3,t3,0x4007
80000370:	408be001 	mtc0	t3,c0_datalo
80000374:	bc080050 	cache	0x8,80(zero)
80000378:	3c0b014c 	lui	t3,0x14c
8000037c:	356b5020 	ori	t3,t3,0x5020
80000380:	408be001 	mtc0	t3,c0_datalo
80000384:	bc080054 	cache	0x8,84(zero)
80000388:	3c0b1000 	lui	t3,0x1000
8000038c:	356b0004 	ori	t3,t3,0x4
80000390:	408be001 	mtc0	t3,c0_datalo
80000394:	bc080058 	cache	0x8,88(zero)
80000398:	3c0b0000 	lui	t3,0x0
8000039c:	356b0000 	ori	t3,t3,0x0
800003a0:	408be001 	mtc0	t3,c0_datalo
800003a4:	bc08005c 	cache	0x8,92(zero)
800003a8:	3c0b014b 	lui	t3,0x14b
800003ac:	356b6022 	ori	t3,t3,0x6022
800003b0:	408be001 	mtc0	t3,c0_datalo
800003b4:	bc080060 	cache	0x8,96(zero)
800003b8:	3c0b0189 	lui	t3,0x189
800003bc:	356b4807 	ori	t3,t3,0x4807
800003c0:	408be001 	mtc0	t3,c0_datalo
800003c4:	bc080064 	cache	0x8,100(zero)
800003c8:	3c0b016c 	lui	t3,0x16c
800003cc:	356b5820 	ori	t3,t3,0x5820
800003d0:	408be001 	mtc0	t3,c0_datalo
800003d4:	bc080068 	cache	0x8,104(zero)
800003d8:	3c0b0109 	lui	t3,0x109
800003dc:	356b6820 	ori	t3,t3,0x6820
800003e0:	408be001 	mtc0	t3,c0_datalo
800003e4:	bc08006c 	cache	0x8,108(zero)
800003e8:	3c0b3c0c 	lui	t3,0x3c0c
800003ec:	356b0100 	ori	t3,t3,0x100
800003f0:	408be001 	mtc0	t3,c0_datalo
800003f4:	bc080070 	cache	0x8,112(zero)
800003f8:	3c0b01ac 	lui	t3,0x1ac
800003fc:	356b6024 	ori	t3,t3,0x6024
80000400:	408be001 	mtc0	t3,c0_datalo
80000404:	bc080074 	cache	0x8,116(zero)
80000408:	3c0b1180 	lui	t3,0x1180
8000040c:	356b0003 	ori	t3,t3,0x3
80000410:	408be001 	mtc0	t3,c0_datalo
80000414:	bc080078 	cache	0x8,120(zero)
80000418:	3c0b0000 	lui	t3,0x0
8000041c:	356b0000 	ori	t3,t3,0x0
80000420:	408be001 	mtc0	t3,c0_datalo
80000424:	bc08007c 	cache	0x8,124(zero)
80000428:	3c0b000d 	lui	t3,0xd
8000042c:	356b6842 	ori	t3,t3,0x6842
80000430:	408be001 	mtc0	t3,c0_datalo
80000434:	bc080080 	cache	0x8,128(zero)
80000438:	3c0b214a 	lui	t3,0x214a
8000043c:	356b0001 	ori	t3,t3,0x1
80000440:	408be001 	mtc0	t3,c0_datalo
80000444:	bc080084 	cache	0x8,132(zero)
80000448:	3c0b3c0c 	lui	t3,0x3c0c
8000044c:	356b007f 	ori	t3,t3,0x7f
80000450:	408be001 	mtc0	t3,c0_datalo
80000454:	bc080088 	cache	0x8,136(zero)
80000458:	3c0b358c 	lui	t3,0x358c
8000045c:	356bffff 	ori	t3,t3,0xffff
80000460:	408be001 	mtc0	t3,c0_datalo
80000464:	bc08008c 	cache	0x8,140(zero)
80000468:	3c0b01ac 	lui	t3,0x1ac
8000046c:	356b6824 	ori	t3,t3,0x6824
80000470:	408be001 	mtc0	t3,c0_datalo
80000474:	bc080090 	cache	0x8,144(zero)
80000478:	3c0b000a 	lui	t3,0xa
8000047c:	356b55c0 	ori	t3,t3,0x55c0
80000480:	408be001 	mtc0	t3,c0_datalo
80000484:	bc080094 	cache	0x8,148(zero)
80000488:	3c0b3c0c 	lui	t3,0x3c0c
8000048c:	356b7f80 	ori	t3,t3,0x7f80
80000490:	408be001 	mtc0	t3,c0_datalo
80000494:	bc080098 	cache	0x8,152(zero)
80000498:	3c0b014c 	lui	t3,0x14c
8000049c:	356b5024 	ori	t3,t3,0x5024
800004a0:	408be001 	mtc0	t3,c0_datalo
800004a4:	bc08009c 	cache	0x8,156(zero)
800004a8:	3c0b01aa 	lui	t3,0x1aa
800004ac:	356b1025 	ori	t3,t3,0x1025
800004b0:	408be001 	mtc0	t3,c0_datalo
800004b4:	bc0800a0 	cache	0x8,160(zero)
800004b8:	3c0b03e0 	lui	t3,0x3e0
800004bc:	356b0008 	ori	t3,t3,0x8
800004c0:	408be001 	mtc0	t3,c0_datalo
800004c4:	bc0800a4 	cache	0x8,164(zero)
800004c8:	4080e001 	mtc0	zero,c0_datalo
800004cc:	bc0800a8 	cache	0x8,168(zero)
800004d0:	00000000 	nop
800004d4:	400cd000 	mfc0	t4,c0_errctl
800004d8:	3c0defff 	lui	t5,0xefff
800004dc:	35adffff 	ori	t5,t5,0xffff
800004e0:	018d6024 	and	t4,t4,t5
800004e4:	408cd000 	mtc0	t4,c0_errctl
800004e8:	00000000 	nop
800004ec:	03c0e825 	move	sp,s8
800004f0:	8fbe0004 	lw	s8,4(sp)
800004f4:	27bd0008 	addiu	sp,sp,8
800004f8:	03e00008 	jr	ra
800004fc:	00000000 	nop

80000500 <main>:
80000500:	27bdffd8 	addiu	sp,sp,-40
80000504:	afbf0024 	sw	ra,36(sp)
80000508:	afbe0020 	sw	s8,32(sp)
8000050c:	03a0f025 	move	s8,sp
80000510:	0c000081 	jal	80000204 <ISPRAM_Init>
80000514:	00000000 	nop
80000518:	24020002 	li	v0,2
8000051c:	4082c800 	mtc0	v0,c0_perfcnt
80000520:	000000c0 	ehb
80000524:	24020022 	li	v0,34
80000528:	4082c802 	mtc0	v0,c0_perfcnt,2
8000052c:	000000c0 	ehb
80000530:	4080c801 	mtc0	zero,c0_perfcnt,1
80000534:	000000c0 	ehb
80000538:	4080c803 	mtc0	zero,c0_perfcnt,3
8000053c:	000000c0 	ehb
80000540:	27bdfffc 	addiu	sp,sp,-4
80000544:	afbf0000 	sw	ra,0(sp)
80000548:	3c043fa0 	lui	a0,0x3fa0
8000054c:	3c054020 	lui	a1,0x4020
80000550:	0c010000 	jal	80040000 <__stack>
80000554:	00000000 	nop
80000558:	24590000 	addiu	t9,v0,0
8000055c:	8fbf0000 	lw	ra,0(sp)
80000560:	27bd0004 	addiu	sp,sp,4
80000564:	03201020 	add	v0,t9,zero
80000568:	afc20010 	sw	v0,16(s8)
8000056c:	4002c801 	mfc0	v0,c0_perfcnt,1
80000570:	0040f825 	move	ra,v0
80000574:	03e01025 	move	v0,ra
80000578:	afc20014 	sw	v0,20(s8)
8000057c:	4002c803 	mfc0	v0,c0_perfcnt,3
80000580:	0040f825 	move	ra,v0
80000584:	03e01025 	move	v0,ra
80000588:	afc20018 	sw	v0,24(s8)
8000058c:	4080c800 	mtc0	zero,c0_perfcnt
80000590:	000000c0 	ehb
80000594:	4080c802 	mtc0	zero,c0_perfcnt,2
80000598:	000000c0 	ehb
8000059c:	4080c801 	mtc0	zero,c0_perfcnt,1
800005a0:	000000c0 	ehb
800005a4:	4080c803 	mtc0	zero,c0_perfcnt,3
800005a8:	000000c0 	ehb
800005ac:	3c02bf80 	lui	v0,0xbf80
800005b0:	34420004 	ori	v0,v0,0x4
800005b4:	8c420000 	lw	v0,0(v0)
800005b8:	24030001 	li	v1,1
800005bc:	1043000f 	beq	v0,v1,800005fc <main+0xfc>
800005c0:	00000000 	nop
800005c4:	2c430001 	sltiu	v1,v0,1
800005c8:	14600006 	bnez	v1,800005e4 <main+0xe4>
800005cc:	00000000 	nop
800005d0:	24030002 	li	v1,2
800005d4:	1043000f 	beq	v0,v1,80000614 <main+0x114>
800005d8:	00000000 	nop
800005dc:	10000016 	b	80000638 <main+0x138>
800005e0:	00000000 	nop
800005e4:	8fc20014 	lw	v0,20(s8)
800005e8:	00402025 	move	a0,v0
800005ec:	0c000193 	jal	8000064c <writeValTo7Segs>
800005f0:	00000000 	nop
800005f4:	10000013 	b	80000644 <main+0x144>
800005f8:	00000000 	nop
800005fc:	8fc20018 	lw	v0,24(s8)
80000600:	00402025 	move	a0,v0
80000604:	0c000193 	jal	8000064c <writeValTo7Segs>
80000608:	00000000 	nop
8000060c:	1000000d 	b	80000644 <main+0x144>
80000610:	00000000 	nop
80000614:	3c02bf80 	lui	v0,0xbf80
80000618:	3442000c 	ori	v0,v0,0xc
8000061c:	ac400000 	sw	zero,0(v0)
80000620:	3c02bf80 	lui	v0,0xbf80
80000624:	34420010 	ori	v0,v0,0x10
80000628:	8fc30010 	lw	v1,16(s8)
8000062c:	ac430000 	sw	v1,0(v0)
80000630:	10000004 	b	80000644 <main+0x144>
80000634:	00000000 	nop
80000638:	00002025 	move	a0,zero
8000063c:	0c000193 	jal	8000064c <writeValTo7Segs>
80000640:	00000000 	nop
80000644:	1000ffd9 	b	800005ac <main+0xac>
80000648:	00000000 	nop

8000064c <writeValTo7Segs>:
8000064c:	27bdffe8 	addiu	sp,sp,-24
80000650:	afbe0014 	sw	s8,20(sp)
80000654:	03a0f025 	move	s8,sp
80000658:	afc40018 	sw	a0,24(s8)
8000065c:	afc00004 	sw	zero,4(s8)
80000660:	afc00008 	sw	zero,8(s8)
80000664:	afc00004 	sw	zero,4(s8)
80000668:	10000025 	b	80000700 <writeValTo7Segs+0xb4>
8000066c:	00000000 	nop
80000670:	8fc30018 	lw	v1,24(s8)
80000674:	3c02cccc 	lui	v0,0xcccc
80000678:	3442cccd 	ori	v0,v0,0xcccd
8000067c:	00620019 	multu	v1,v0
80000680:	00001010 	mfhi	v0
80000684:	000210c2 	srl	v0,v0,0x3
80000688:	00021040 	sll	v0,v0,0x1
8000068c:	00022080 	sll	a0,v0,0x2
80000690:	00441021 	addu	v0,v0,a0
80000694:	00621023 	subu	v0,v1,v0
80000698:	afc20000 	sw	v0,0(s8)
8000069c:	8fc30000 	lw	v1,0(s8)
800006a0:	8fc20004 	lw	v0,4(s8)
800006a4:	00021080 	sll	v0,v0,0x2
800006a8:	00431004 	sllv	v0,v1,v0
800006ac:	00401825 	move	v1,v0
800006b0:	8fc20008 	lw	v0,8(s8)
800006b4:	00621025 	or	v0,v1,v0
800006b8:	afc20008 	sw	v0,8(s8)
800006bc:	8fc30018 	lw	v1,24(s8)
800006c0:	3c02cccc 	lui	v0,0xcccc
800006c4:	3442cccd 	ori	v0,v0,0xcccd
800006c8:	00620019 	multu	v1,v0
800006cc:	00001010 	mfhi	v0
800006d0:	000210c2 	srl	v0,v0,0x3
800006d4:	afc20018 	sw	v0,24(s8)
800006d8:	8fc20004 	lw	v0,4(s8)
800006dc:	24030001 	li	v1,1
800006e0:	00431004 	sllv	v0,v1,v0
800006e4:	00401825 	move	v1,v0
800006e8:	8fc2000c 	lw	v0,12(s8)
800006ec:	00621025 	or	v0,v1,v0
800006f0:	afc2000c 	sw	v0,12(s8)
800006f4:	8fc20004 	lw	v0,4(s8)
800006f8:	24420001 	addiu	v0,v0,1
800006fc:	afc20004 	sw	v0,4(s8)
80000700:	8fc20018 	lw	v0,24(s8)
80000704:	10400005 	beqz	v0,8000071c <writeValTo7Segs+0xd0>
80000708:	00000000 	nop
8000070c:	8fc20004 	lw	v0,4(s8)
80000710:	28420008 	slti	v0,v0,8
80000714:	1440ffd6 	bnez	v0,80000670 <writeValTo7Segs+0x24>
80000718:	00000000 	nop
8000071c:	3c02bf80 	lui	v0,0xbf80
80000720:	34420010 	ori	v0,v0,0x10
80000724:	8fc30008 	lw	v1,8(s8)
80000728:	ac430000 	sw	v1,0(v0)
8000072c:	3c02bf80 	lui	v0,0xbf80
80000730:	3442000c 	ori	v0,v0,0xc
80000734:	8fc3000c 	lw	v1,12(s8)
80000738:	00031827 	nor	v1,zero,v1
8000073c:	ac430000 	sw	v1,0(v0)
80000740:	00000000 	nop
80000744:	03c0e825 	move	sp,s8
80000748:	8fbe0014 	lw	s8,20(sp)
8000074c:	27bd0018 	addiu	sp,sp,24
80000750:	03e00008 	jr	ra
80000754:	00000000 	nop

Disassembly of section .debug_aranges:

00000000 <.debug_aranges>:
   0:	0000001c 	0x1c
   4:	00000002 	srl	zero,zero,0x0
   8:	00040000 	sll	zero,a0,0x0
   c:	00000000 	nop
  10:	9fc00144 	0x9fc00144
  14:	00000070 	tge	zero,zero,0x1
	...
  20:	0000001c 	0x1c
  24:	005f0002 	0x5f0002
  28:	00040000 	sll	zero,a0,0x0
  2c:	00000000 	nop
  30:	9fc00000 	0x9fc00000
  34:	00000144 	0x144
	...
  40:	0000001c 	0x1c
  44:	00be0002 	0xbe0002
  48:	00040000 	sll	zero,a0,0x0
  4c:	00000000 	nop
  50:	80000000 	lb	zero,0(zero)
  54:	00000198 	0x198
	...
  60:	0000001c 	0x1c
  64:	01230002 	0x1230002
  68:	00040000 	sll	zero,a0,0x0
  6c:	00000000 	nop
  70:	80000200 	lb	zero,512(zero)
  74:	00000004 	sllv	zero,zero,zero
	...
  80:	0000001c 	0x1c
  84:	01830002 	0x1830002
  88:	00040000 	sll	zero,a0,0x0
  8c:	00000000 	nop
  90:	80000204 	lb	zero,516(zero)
  94:	00000554 	0x554
	...

Disassembly of section .debug_info:

00000000 <.debug_info>:
   0:	0000005b 	0x5b
   4:	00000002 	srl	zero,zero,0x0
   8:	01040000 	0x1040000
   c:	00000000 	nop
  10:	9fc00144 	0x9fc00144
  14:	9fc001b4 	0x9fc001b4
  18:	30747263 	andi	s4,v1,0x7263
  1c:	4300532e 	c0	0x100532e
  20:	73555c3a 	0x73555c3a
  24:	5c737265 	0x5c737265
  28:	696e6144 	0x696e6144
  2c:	7365445c 	udi12	k1,a1,t0,0x11
  30:	706f746b 	s16std	xr1,v1,-70,ptn1
  34:	6d69535c 	0x6d69535c
  38:	74616c75 	jalx	185b1d4 <__memory_size+0x183b9d4>
  3c:	536e6f69 	beql	k1,t6,1bde4 <__isr_vec_space+0x1bdc4>
  40:	6372756f 	0x6372756f
  44:	495f7365 	0x495f7365
  48:	41525053 	0x41525053
  4c:	4e47004d 	c3	0x47004d
  50:	53412055 	beql	k0,at,81a8 <__isr_vec_space+0x8188>
  54:	322e3220 	andi	t6,s1,0x3220
  58:	30392e34 	andi	t9,at,0x2e34
  5c:	5b800100 	blezl	gp,460 <__isr_vec_space+0x440>
  60:	02000000 	0x2000000
  64:	00001400 	sll	v0,zero,0x10
  68:	48010400 	0x48010400
  6c:	00000000 	nop
  70:	449fc000 	mtc1	ra,$f24
  74:	629fc001 	0x629fc001
  78:	2e746f6f 	sltiu	s4,s3,28527
  7c:	3a430053 	xori	v1,s2,0x53
  80:	6573555c 	0x6573555c
  84:	445c7372 	0x445c7372
  88:	5c696e61 	0x5c696e61
  8c:	6b736544 	0x6b736544
  90:	5c706f74 	0x5c706f74
  94:	756d6953 	jalx	5b5a54c <__memory_size+0x5b3ad4c>
  98:	6974616c 	0x6974616c
  9c:	6f536e6f 	0x6f536e6f
  a0:	65637275 	0x65637275
  a4:	53495f73 	beql	k0,t1,17e74 <__isr_vec_space+0x17e54>
  a8:	4d415250 	0x4d415250
  ac:	554e4700 	bnel	t2,t6,11cb0 <__isr_vec_space+0x11c90>
  b0:	20534120 	addi	s3,v0,16672
  b4:	34322e32 	ori	s2,at,0x2e32
  b8:	0030392e 	0x30392e
  bc:	00618001 	movt	s0,v1,$fcc0
  c0:	00020000 	sll	zero,v0,0x0
  c4:	00000028 	0x28
  c8:	00ce0104 	0xce0104
  cc:	00000000 	nop
  d0:	01988000 	0x1988000
  d4:	78658000 	andi.b	$w0,$w16,0x65
  d8:	74706563 	jalx	1c1958c <__memory_size+0x1bf9d8c>
  dc:	736e6f69 	0x736e6f69
  e0:	4300532e 	c0	0x100532e
  e4:	73555c3a 	0x73555c3a
  e8:	5c737265 	0x5c737265
  ec:	696e6144 	0x696e6144
  f0:	7365445c 	udi12	k1,a1,t0,0x11
  f4:	706f746b 	s16std	xr1,v1,-70,ptn1
  f8:	6d69535c 	0x6d69535c
  fc:	74616c75 	jalx	185b1d4 <__memory_size+0x183b9d4>
 100:	536e6f69 	beql	k1,t6,1bea8 <__isr_vec_space+0x1be88>
 104:	6372756f 	0x6372756f
 108:	495f7365 	0x495f7365
 10c:	41525053 	0x41525053
 110:	4e47004d 	c3	0x47004d
 114:	53412055 	beql	k0,at,826c <__isr_vec_space+0x824c>
 118:	322e3220 	andi	t6,s1,0x3220
 11c:	30392e34 	andi	t9,at,0x2e34
 120:	5c800100 	bgtzl	a0,524 <__isr_vec_space+0x504>
 124:	02000000 	0x2000000
 128:	00003c00 	sll	a3,zero,0x10
 12c:	1b010400 	0x1b010400
 130:	00000001 	movf	zero,zero,$fcc0
 134:	04800002 	bltz	a0,140 <__isr_vec_space+0x120>
 138:	64800002 	0x64800002
 13c:	796d6d75 	0x796d6d75
 140:	4300532e 	c0	0x100532e
 144:	73555c3a 	0x73555c3a
 148:	5c737265 	0x5c737265
 14c:	696e6144 	0x696e6144
 150:	7365445c 	udi12	k1,a1,t0,0x11
 154:	706f746b 	s16std	xr1,v1,-70,ptn1
 158:	6d69535c 	0x6d69535c
 15c:	74616c75 	jalx	185b1d4 <__memory_size+0x183b9d4>
 160:	536e6f69 	beql	k1,t6,1bf08 <__isr_vec_space+0x1bee8>
 164:	6372756f 	0x6372756f
 168:	495f7365 	0x495f7365
 16c:	41525053 	0x41525053
 170:	4e47004d 	c3	0x47004d
 174:	53412055 	beql	k0,at,82cc <__isr_vec_space+0x82ac>
 178:	322e3220 	andi	t6,s1,0x3220
 17c:	30392e34 	andi	t9,at,0x2e34
 180:	5c800100 	bgtzl	a0,584 <__isr_vec_space+0x564>
 184:	04000001 	bltz	zero,18c <__isr_vec_space+0x16c>
 188:	00005000 	sll	t2,zero,0x0
 18c:	00010400 	sll	zero,at,0x10
 190:	01000000 	0x1000000
 194:	00000056 	0x56
 198:	0000006b 	0x6b
 19c:	80000204 	lb	zero,516(zero)
 1a0:	00000554 	0x554
 1a4:	00000152 	0x152
 1a8:	b2070402 	0xb2070402
 1ac:	02000000 	0x2000000
 1b0:	00b70704 	0xb70704
 1b4:	c4030000 	lwc1	$f3,0(zero)
 1b8:	02000000 	0x2000000
 1bc:	002c0393 	0x2c0393
 1c0:	08020000 	j	80000 <__memory_size+0x60800>
 1c4:	0000ad07 	0xad07
 1c8:	05040400 	0x5040400
 1cc:	00746e69 	0x746e69
 1d0:	1d010805 	0x1d010805
 1d4:	0000006e 	0x6e
 1d8:	0000a606 	0xa606
 1dc:	461f0100 	add.s	$f4,$f0,$f31
 1e0:	00000000 	nop
 1e4:	00004f06 	0x4f06
 1e8:	46200100 	add.d	$f4,$f0,$f0
 1ec:	04000000 	bltz	zero,1f0 <__isr_vec_space+0x1d0>
 1f0:	005d0700 	0x5d0700
 1f4:	22010000 	addi	at,s0,0
 1f8:	0000004d 	break	0x0,0x1
 1fc:	00009a08 	0x9a08
 200:	04290100 	tgeiu	at,256
 204:	fc800002 	sdc3	$0,2(a0)
 208:	01000002 	0x1000002
 20c:	00d5099c 	0xd5099c
 210:	1d010000 	0x1d010000
 214:	00004601 	0x4601
 218:	00050000 	sll	zero,a1,0x0
 21c:	00014c80 	sll	t1,at,0x12
 220:	f59c0100 	sdc1	$f28,256(t4)
 224:	0a000000 	j	8000000 <__memory_size+0x7fe0800>
 228:	000000fa 	0xfa
 22c:	6e011f01 	0x6e011f01
 230:	02000000 	0x2000000
 234:	780b6c91 	subs_s.b	$w18,$w13,$w11
 238:	01200100 	0x1200100
 23c:	00000046 	rorv	zero,zero,zero
 240:	0c689102 	jal	1a24408 <__memory_size+0x1a04c08>
 244:	8000056c 	lb	zero,1388(zero)
 248:	0000000c 	syscall
 24c:	000000dc 	0xdc
 250:	725f5f0b 	d16macf	xr12,xr7,xr13,xr7,SA,LW
 254:	01420100 	0x1420100
 258:	00000025 	move	zero,zero
 25c:	0d006f01 	jal	401bc04 <__memory_size+0x3ffc404>
 260:	8000057c 	lb	zero,1404(zero)
 264:	0000000c 	syscall
 268:	725f5f0b 	d16macf	xr12,xr7,xr13,xr7,SA,LW
 26c:	01420100 	0x1420100
 270:	00000025 	move	zero,zero
 274:	00006f01 	0x6f01
 278:	0000e40e 	0xe40e
 27c:	015f0100 	0x15f0100
 280:	8000064c 	lb	zero,1612(zero)
 284:	0000010c 	syscall	0x4
 288:	01559c01 	0x1559c01
 28c:	760f0000 	jalx	83c0000 <__memory_size+0x83a0800>
 290:	01006c61 	0x1006c61
 294:	002c015f 	0x2c015f
 298:	91020000 	lbu	v0,0(t0)
 29c:	00f40a00 	0xf40a00
 2a0:	61010000 	0x61010000
 2a4:	00015501 	0x15501
 2a8:	68910200 	0x68910200
 2ac:	0100690b 	0x100690b
 2b0:	01550161 	0x1550161
 2b4:	91020000 	lbu	v0,0(t0)
 2b8:	00da0a6c 	0xda0a6c
 2bc:	62010000 	0x62010000
 2c0:	00015a01 	0x15a01
 2c4:	70910200 	0x70910200
 2c8:	0000cc0a 	0xcc0a
 2cc:	01620100 	0x1620100
 2d0:	0000015a 	0x15a
 2d4:	00749102 	0x749102
 2d8:	00004610 	0x4610
 2dc:	002c1000 	0x2c1000
 2e0:	Address 0x00000000000002e0 is out of bounds.


Disassembly of section .debug_abbrev:

00000000 <.debug_abbrev>:
   0:	10001101 	b	4408 <__isr_vec_space+0x43e8>
   4:	12011106 	beq	s0,at,4420 <__isr_vec_space+0x4400>
   8:	1b080301 	0x1b080301
   c:	13082508 	beq	t8,t0,9430 <__isr_vec_space+0x9410>
  10:	00000005 	lsa	zero,zero,zero,0x1
  14:	10001101 	b	441c <__isr_vec_space+0x43fc>
  18:	12011106 	beq	s0,at,4434 <__isr_vec_space+0x4414>
  1c:	1b080301 	0x1b080301
  20:	13082508 	beq	t8,t0,9444 <__isr_vec_space+0x9424>
  24:	00000005 	lsa	zero,zero,zero,0x1
  28:	10001101 	b	4430 <__isr_vec_space+0x4410>
  2c:	12011106 	beq	s0,at,4448 <__isr_vec_space+0x4428>
  30:	1b080301 	0x1b080301
  34:	13082508 	beq	t8,t0,9458 <__isr_vec_space+0x9438>
  38:	00000005 	lsa	zero,zero,zero,0x1
  3c:	10001101 	b	4444 <__isr_vec_space+0x4424>
  40:	12011106 	beq	s0,at,445c <__isr_vec_space+0x443c>
  44:	1b080301 	0x1b080301
  48:	13082508 	beq	t8,t0,946c <__isr_vec_space+0x944c>
  4c:	00000005 	lsa	zero,zero,zero,0x1
  50:	25011101 	addiu	at,t0,4353
  54:	030b130e 	0x30b130e
  58:	110e1b0e 	beq	t0,t6,6c94 <__isr_vec_space+0x6c74>
  5c:	10061201 	beq	zero,a2,4864 <__isr_vec_space+0x4844>
  60:	02000017 	0x2000017
  64:	0b0b0024 	j	c2c0090 <__memory_size+0xc2a0890>
  68:	0e030b3e 	jal	80c2cf8 <__memory_size+0x80a34f8>
  6c:	16030000 	bne	s0,v1,70 <__isr_vec_space+0x50>
  70:	3a0e0300 	xori	t6,s0,0x300
  74:	49053b0b 	bc2t	$cc1,eca4 <__isr_vec_space+0xec84>
  78:	04000013 	bltz	zero,c8 <__isr_vec_space+0xa8>
  7c:	0b0b0024 	j	c2c0090 <__memory_size+0xc2a0890>
  80:	08030b3e 	j	c2cf8 <__memory_size+0xa34f8>
  84:	13050000 	beq	t8,a1,88 <__isr_vec_space+0x68>
  88:	3a0b0b01 	xori	t3,s0,0xb01
  8c:	010b3b0b 	0x10b3b0b
  90:	06000013 	bltz	s0,e0 <__isr_vec_space+0xc0>
  94:	0e03000d 	jal	80c0034 <__memory_size+0x80a0834>
  98:	0b3b0b3a 	j	cec2ce8 <__memory_size+0xcea34e8>
  9c:	0b381349 	j	ce04d24 <__memory_size+0xcde5524>
  a0:	16070000 	bne	s0,a3,a4 <__isr_vec_space+0x84>
  a4:	3a0e0300 	xori	t6,s0,0x300
  a8:	490b3b0b 	bc2tl	$cc2,ecd8 <__isr_vec_space+0xecb8>
  ac:	08000013 	j	4c <__isr_vec_space+0x2c>
  b0:	193f002e 	0x193f002e
  b4:	0b3a0e03 	j	ce8380c <__memory_size+0xce6400c>
  b8:	01110b3b 	0x1110b3b
  bc:	18400612 	blez	v0,1908 <__isr_vec_space+0x18e8>
  c0:	00194297 	0x194297
  c4:	012e0900 	0x12e0900
  c8:	0e03193f 	jal	80c64fc <__memory_size+0x80a6cfc>
  cc:	053b0b3a 	0x53b0b3a
  d0:	01111349 	0x1111349
  d4:	18400612 	blez	v0,1920 <__isr_vec_space+0x1900>
  d8:	01194296 	0x1194296
  dc:	0a000013 	j	800004c <__memory_size+0x7fe084c>
  e0:	0e030034 	jal	80c00d0 <__memory_size+0x80a08d0>
  e4:	053b0b3a 	0x53b0b3a
  e8:	18021349 	0x18021349
  ec:	340b0000 	li	t3,0x0
  f0:	3a080300 	xori	t0,s0,0x300
  f4:	49053b0b 	bc2t	$cc1,ed24 <__isr_vec_space+0xed04>
  f8:	00180213 	0x180213
  fc:	010b0c00 	0x10b0c00
 100:	06120111 	bltzall	s0,548 <__isr_vec_space+0x528>
 104:	00001301 	0x1301
 108:	11010b0d 	beq	t0,at,2d40 <__isr_vec_space+0x2d20>
 10c:	00061201 	0x61201
 110:	012e0e00 	0x12e0e00
 114:	0e03193f 	jal	80c64fc <__memory_size+0x80a6cfc>
 118:	053b0b3a 	0x53b0b3a
 11c:	01111927 	0x1111927
 120:	18400612 	blez	v0,196c <__isr_vec_space+0x194c>
 124:	01194297 	0x1194297
 128:	0f000013 	jal	c00004c <__memory_size+0xbfe084c>
 12c:	08030005 	j	c0014 <__memory_size+0xa0814>
 130:	053b0b3a 	0x53b0b3a
 134:	18021349 	0x18021349
 138:	35100000 	ori	s0,t0,0x0
 13c:	00134900 	sll	t1,s3,0x4
	...

Disassembly of section .debug_line:

00000000 <.debug_line>:
   0:	00000044 	0x44
   4:	001d0002 	srl	zero,sp,0x0
   8:	01010000 	0x1010000
   c:	000d0efb 	0xd0efb
  10:	01010101 	0x1010101
  14:	01000000 	0x1000000
  18:	00010000 	sll	zero,at,0x0
  1c:	30747263 	andi	s4,v1,0x7263
  20:	0000532e 	0x532e
  24:	00000000 	nop
  28:	01440205 	0x1440205
  2c:	0f039fc0 	jal	c0e7f00 <__memory_size+0xc0c8700>
  30:	84844c01 	lh	a0,19457(a0)
  34:	4b848383 	c2	0x1848383
  38:	4e4c854b 	c3	0x4c854b
  3c:	4d4b4b4b 	0x4d4b4b4b
  40:	024b8583 	0x24b8583
  44:	01010008 	0x1010008
  48:	00000082 	srl	zero,zero,0x2
  4c:	001d0002 	srl	zero,sp,0x0
  50:	01010000 	0x1010000
  54:	000d0efb 	0xd0efb
  58:	01010101 	0x1010101
  5c:	01000000 	0x1000000
  60:	00010000 	sll	zero,at,0x0
  64:	746f6f62 	jalx	1bdbd88 <__memory_size+0x1bbc588>
  68:	0000532e 	0x532e
  6c:	00000000 	nop
  70:	00000205 	0x205
  74:	13039fc0 	beq	t8,v1,fffe7f78 <__entry+0x403e7f78>
  78:	4d835101 	0x4d835101
  7c:	4a0a034d 	c2	0xa034d
  80:	4d4b4b4b 	0x4d4b4b4b
  84:	4b4b4b4b 	c2	0x14b4b4b
  88:	4b4d4b4b 	c2	0x14d4b4b
  8c:	4c4b4b4b 	0x4c4b4b4b
  90:	4b4b514b 	c2	0x14b514b
  94:	4c4b4c4b 	0x4c4b4c4b
  98:	4b4c4b4b 	c2	0x14c4b4b
  9c:	4b4c4b4b 	c2	0x14c4b4b
  a0:	4b4b4b4f 	c2	0x14b4b4f
  a4:	4b4a0c03 	c2	0x14a0c03
  a8:	834c4b4b 	lb	t4,19275(k0)
  ac:	4b4b504b 	c2	0x14b504b
  b0:	4c4b4c4b 	0x4c4b4c4b
  b4:	4b4c4b4b 	c2	0x14c4b4b
  b8:	4b4c4b4b 	c2	0x14c4b4b
  bc:	4b4b4f4b 	c2	0x14b4f4b
  c0:	4c834f4b 	0x4c834f4b
  c4:	504e4b83 	beql	v0,t6,12ed4 <__isr_vec_space+0x12eb4>
  c8:	0004024b 	0x4024b
  cc:	00490101 	0x490101
  d0:	00020000 	sll	zero,v0,0x0
  d4:	00000023 	negu	zero,zero
  d8:	0efb0101 	jal	bec0404 <__memory_size+0xbea0c04>
  dc:	0101000d 	break	0x101
  e0:	00000101 	0x101
  e4:	00000100 	sll	zero,zero,0x4
  e8:	78650001 	bmnzi.b	$w0,$w0,0x65
  ec:	74706563 	jalx	1c1958c <__memory_size+0x1bf9d8c>
  f0:	736e6f69 	0x736e6f69
  f4:	0000532e 	0x532e
  f8:	00000000 	nop
  fc:	00000205 	0x205
 100:	2c038000 	sltiu	v1,zero,-32768
 104:	02838301 	0x2838301
 108:	83831770 	lb	v1,6000(gp)
 10c:	83177002 	lb	s7,28674(t8)
 110:	17700283 	bne	k1,s0,b20 <__isr_vec_space+0xb00>
 114:	08028383 	j	a0e0c <__memory_size+0x8160c>
 118:	33010100 	andi	at,t8,0x100
 11c:	02000000 	0x2000000
 120:	00001e00 	sll	v1,zero,0x18
 124:	fb010100 	sdc2	$1,256(t8)
 128:	01000d0e 	0x1000d0e
 12c:	00010101 	0x10101
 130:	00010000 	sll	zero,at,0x0
 134:	64000100 	0x64000100
 138:	796d6d75 	0x796d6d75
 13c:	0000532e 	0x532e
 140:	00000000 	nop
 144:	02000205 	0x2000205
 148:	3a038000 	xori	v1,s0,0x8000
 14c:	00040201 	0x40201
 150:	00e50101 	0xe50101
 154:	00020000 	sll	zero,v0,0x0
 158:	00000078 	0x78
 15c:	0efb0101 	jal	bec0404 <__memory_size+0xbea0c04>
 160:	0101000d 	break	0x101
 164:	00000101 	0x101
 168:	00000100 	sll	zero,zero,0x4
 16c:	5c3a6301 	0x5c3a6301
 170:	676f7270 	0x676f7270
 174:	317e6172 	andi	s8,t3,0x6172
 178:	616d695c 	0x616d695c
 17c:	7e6e6967 	0x7e6e6967
 180:	6f745c31 	0x6f745c31
 184:	68636c6f 	0x68636c6f
 188:	6d5c317e 	0x6d5c317e
 18c:	2d737069 	sltiu	s3,t3,28777
 190:	2d69746d 	sltiu	t1,t3,29805
 194:	5c666c65 	0x5c666c65
 198:	36313032 	ori	s1,s1,0x3032
 19c:	2d35302e 	sltiu	s5,t1,12334
 1a0:	6d5c3330 	0x6d5c3330
 1a4:	2d737069 	sltiu	s3,t3,28777
 1a8:	2d69746d 	sltiu	t1,t3,29805
 1ac:	5c666c65 	0x5c666c65
 1b0:	6c636e69 	0x6c636e69
 1b4:	5c656475 	0x5c656475
 1b8:	7370696d 	s16sdi	xr5,k1,52,
 1bc:	616d0000 	0x616d0000
 1c0:	632e6e69 	0x632e6e69
 1c4:	00000000 	nop
 1c8:	6332336d 	0x6332336d
 1cc:	00682e30 	tge	v1,t0,0xb8
 1d0:	00000001 	movf	zero,zero,$fcc0
 1d4:	04020500 	bltzl	zero,15d8 <__isr_vec_space+0x15b8>
 1d8:	03800002 	0x3800002
 1dc:	03bc0128 	0x3bc0128
 1e0:	dc0201ed 	ldc3	$2,493(zero)
 1e4:	41080105 	0x41080105
 1e8:	820903fa 	lb	t1,1018(s0)
 1ec:	03142802 	0x3142802
 1f0:	0124020b 	0x124020b
 1f4:	19400289 	blez	t2,c1c <__isr_vec_space+0xbfc>
 1f8:	f3153802 	0xf3153802
 1fc:	bb84f384 	swr	a0,-3196(gp)
 200:	89bc84f3 	lwl	gp,-31501(t5)
 204:	004d4bf4 	teq	v0,t5,0x12f
 208:	bb040402 	swr	a0,1026(t8)
 20c:	04040200 	0x4040200
 210:	00132c02 	srl	a1,s3,0x10
 214:	08040402 	j	101008 <__memory_size+0xe1808>
 218:	040200e5 	bltzl	zero,5b0 <__isr_vec_space+0x590>
 21c:	00ad0804 	sllv	at,t5,a1
 220:	08040402 	j	101008 <__memory_size+0xe1808>
 224:	040200a8 	bltzl	zero,4c8 <__isr_vec_space+0x4a8>
 228:	00ba0601 	0xba0601
 22c:	ba030402 	swr	v1,1026(s0)
 230:	08f3f906 	j	3cfe418 <__memory_size+0x3cdec18>
 234:	14024b3e 	bne	zero,v0,12f30 <__isr_vec_space+0x12f10>
 238:	Address 0x0000000000000238 is out of bounds.


Disassembly of section .debug_frame:

00000000 <.debug_frame>:
   0:	0000000c 	syscall
   4:	ffffffff 	sdc3	$31,-1(ra)
   8:	7c010001 	0x7c010001
   c:	001d0d1f 	0x1d0d1f
  10:	00000020 	add	zero,zero,zero
  14:	00000000 	nop
  18:	80000204 	lb	zero,516(zero)
  1c:	000002fc 	0x2fc
  20:	44080e44 	0x44080e44
  24:	0d44019e 	jal	5100678 <__memory_size+0x50e0e78>
  28:	02e0031e 	0x2e0031e
  2c:	de481d0d 	ldc3	$8,7437(s2)
  30:	0000000e 	0xe
  34:	00000018 	mult	zero,zero
  38:	00000000 	nop
  3c:	80000500 	lb	zero,1280(zero)
  40:	0000014c 	syscall	0x5
  44:	48280e44 	0x48280e44
  48:	029e019f 	0x29e019f
  4c:	001e0d44 	0x1e0d44
  50:	00000020 	add	zero,zero,zero
  54:	00000000 	nop
  58:	8000064c 	lb	zero,1612(zero)
  5c:	0000010c 	syscall	0x4
  60:	44180e44 	0x44180e44
  64:	0d44019e 	jal	5100678 <__memory_size+0x50e0e78>
  68:	0df0021e 	jal	7c00878 <__memory_size+0x7be1078>
  6c:	0ede481d 	jal	b792074 <__memory_size+0xb772874>
  70:	00000000 	nop

Disassembly of section .debug_str:

00000000 <.debug_str>:
   0:	20554e47 	addi	s5,v0,20039
   4:	2e342043 	sltiu	s4,s1,8259
   8:	20322e39 	addi	s2,at,11833
   c:	6c656d2d 	0x6c656d2d
  10:	616d2d20 	0x616d2d20
  14:	3d686372 	0x3d686372
  18:	6b34316d 	0x6b34316d
  1c:	6d2d2063 	0x6d2d2063
  20:	74666f73 	jalx	199bdcc <__memory_size+0x197c5cc>
  24:	6f6c662d 	0x6f6c662d
  28:	2d207461 	sltiu	zero,t1,29793
  2c:	746c706d 	jalx	1b1c1b4 <__memory_size+0x1afc9b4>
  30:	696d2d20 	0x696d2d20
  34:	32337370 	andi	s3,s1,0x7370
  38:	2d203272 	sltiu	zero,t1,12914
  3c:	6e79736d 	0x6e79736d
  40:	2d206963 	sltiu	zero,t1,26979
  44:	6962616d 	0x6962616d
  48:	2032333d 	addi	s2,at,13117
  4c:	6500672d 	0x6500672d
  50:	746e6576 	jalx	1b995d8 <__memory_size+0x1b79dd8>
  54:	616d0032 	0x616d0032
  58:	632e6e69 	0x632e6e69
  5c:	73657400 	0x73657400
  60:	65725f74 	0x65725f74
  64:	746c7573 	jalx	1b1d5cc <__memory_size+0x1afddcc>
  68:	4300745f 	c0	0x100745f
  6c:	73555c3a 	0x73555c3a
  70:	5c737265 	0x5c737265
  74:	696e6144 	0x696e6144
  78:	7365445c 	udi12	k1,a1,t0,0x11
  7c:	706f746b 	s16std	xr1,v1,-70,ptn1
  80:	6d69535c 	0x6d69535c
  84:	74616c75 	jalx	185b1d4 <__memory_size+0x183b9d4>
  88:	536e6f69 	beql	k1,t6,1be30 <__isr_vec_space+0x1be10>
  8c:	6372756f 	0x6372756f
  90:	495f7365 	0x495f7365
  94:	41525053 	0x41525053
  98:	5349004d 	beql	k0,t1,1d0 <__isr_vec_space+0x1b0>
  9c:	4d415250 	0x4d415250
  a0:	696e495f 	0x696e495f
  a4:	76650074 	jalx	99401d0 <__memory_size+0x99209d0>
  a8:	31746e65 	andi	s4,t3,0x6e65
  ac:	6e6f6c00 	0x6e6f6c00
  b0:	6f6c2067 	0x6f6c2067
  b4:	7520676e 	jalx	4819db8 <__memory_size+0x47fa5b8>
  b8:	6769736e 	0x6769736e
  bc:	2064656e 	addi	a0,v1,25966
  c0:	00746e69 	0x746e69
  c4:	33676572 	andi	a3,k1,0x6572
  c8:	00745f32 	tlt	v1,s4,0x17c
  cc:	69446e65 	0x69446e65
  d0:	73746967 	0x73746967
  d4:	69616d00 	0x69616d00
  d8:	6c61006e 	0x6c61006e
  dc:	6769446c 	0x6769446c
  e0:	00737469 	0x737469
  e4:	74697277 	jalx	1a5c9dc <__memory_size+0x1a3d1dc>
  e8:	6c615665 	0x6c615665
  ec:	53376f54 	beql	t9,s7,1be40 <__isr_vec_space+0x1be20>
  f0:	00736765 	0x736765
  f4:	69676964 	0x69676964
  f8:	65740074 	0x65740074
  fc:	725f7473 	d32sar	xr1,xr13,xr13,xr7,9
 100:	6c757365 	0x6c757365
 104:	Address 0x0000000000000104 is out of bounds.


Disassembly of section .pdr:

00000000 <.pdr>:
   0:	9fc00144 	0x9fc00144
	...
  20:	9fc00000 	0x9fc00000
	...
  40:	80000000 	lb	zero,0(zero)
	...
  60:	80000200 	lb	zero,512(zero)
	...
  80:	80000200 	lb	zero,512(zero)
	...
  a0:	80000200 	lb	zero,512(zero)
	...
  c0:	80000200 	lb	zero,512(zero)
	...
  e0:	80000200 	lb	zero,512(zero)
	...
 100:	80000204 	lb	zero,516(zero)
 104:	40000000 	mfc0	zero,c0_index
 108:	fffffffc 	sdc3	$31,-4(ra)
	...
 114:	00000008 	jr	zero
 118:	0000001e 	0x1e
 11c:	0000001f 	0x1f
 120:	80000500 	lb	zero,1280(zero)
 124:	c0000000 	ll	zero,0(zero)
 128:	fffffffc 	sdc3	$31,-4(ra)
	...
 134:	00000028 	0x28
 138:	0000001e 	0x1e
 13c:	0000001f 	0x1f
 140:	8000064c 	lb	zero,1612(zero)
 144:	40000000 	mfc0	zero,c0_index
 148:	fffffffc 	sdc3	$31,-4(ra)
	...
 154:	00000018 	mult	zero,zero
 158:	0000001e 	0x1e
 15c:	0000001f 	0x1f

Disassembly of section .gnu.attributes:

00000000 <.gnu.attributes>:
   0:	00000f41 	0xf41
   4:	756e6700 	jalx	5b99c00 <__memory_size+0x5b7a400>
   8:	00070100 	sll	zero,a3,0x4
   c:	03040000 	0x3040000

Disassembly of section .comment:

00000000 <.comment>:
   0:	3a434347 	xori	v1,s2,0x4347
   4:	6f432820 	0x6f432820
   8:	63736564 	0x63736564
   c:	20657061 	addi	a1,v1,28769
  10:	20554e47 	addi	s5,v0,20039
  14:	6c6f6f54 	0x6c6f6f54
  18:	30322073 	andi	s2,at,0x2073
  1c:	302e3631 	andi	t6,at,0x3631
  20:	33302d35 	andi	s0,t9,0x2d35
  24:	726f6620 	0x726f6620
  28:	50494d20 	beql	v0,t1,134ac <__isr_vec_space+0x1348c>
  2c:	544d2053 	bnel	v0,t5,817c <__isr_vec_space+0x815c>
  30:	61422049 	0x61422049
  34:	4d206572 	0x4d206572
  38:	6c617465 	0x6c617465
  3c:	2e342029 	sltiu	s4,s1,8233
  40:	00322e39 	0x322e39
