
program.elf:     file format elf32-tradlittlemips


Disassembly of section .bootrom:

9fc00000 <__reset_vector>:
9fc00000:	40804800 	mtc0	zero,c0_count

9fc00004 <init_cp0>:
9fc00004:	3c030040 	lui	v1,0x40
9fc00008:	34630004 	ori	v1,v1,0x4
9fc0000c:	40836000 	mtc0	v1,c0_status
9fc00010:	40806800 	mtc0	zero,c0_cause
9fc00014:	40805800 	mtc0	zero,c0_compare

9fc00018 <init_tlb>:
9fc00018:	40038000 	mfc0	v1,c0_config
9fc0001c:	7c6311c0 	ext	v1,v1,0x7,0x3
9fc00020:	24070001 	li	a3,1
9fc00024:	1467000e 	bne	v1,a3,9fc00060 <init_icache>
9fc00028:	40028001 	mfc0	v0,c0_config1
9fc0002c:	7c432e40 	ext	v1,v0,0x19,0x6
9fc00030:	40801000 	mtc0	zero,c0_entrylo0
9fc00034:	40801800 	mtc0	zero,c0_entrylo1
9fc00038:	40802800 	mtc0	zero,c0_pagemask
9fc0003c:	40803000 	mtc0	zero,c0_wired
9fc00040:	3c048000 	lui	a0,0x8000

9fc00044 <next_tlb_entry>:
9fc00044:	40830000 	mtc0	v1,c0_index
9fc00048:	40845000 	mtc0	a0,c0_entryhi
9fc0004c:	000000c0 	ehb
9fc00050:	42000002 	tlbwi
9fc00054:	20844000 	addi	a0,a0,16384
9fc00058:	1460fffa 	bnez	v1,9fc00044 <next_tlb_entry>
9fc0005c:	2063ffff 	addi	v1,v1,-1

9fc00060 <init_icache>:
9fc00060:	40028001 	mfc0	v0,c0_config1
9fc00064:	7c4314c0 	ext	v1,v0,0x13,0x3
9fc00068:	10600010 	beqz	v1,9fc000ac <done_icache>
9fc0006c:	00000000 	nop
9fc00070:	24060002 	li	a2,2
9fc00074:	00661804 	sllv	v1,a2,v1
9fc00078:	7c441580 	ext	a0,v0,0x16,0x3
9fc0007c:	24060040 	li	a2,64
9fc00080:	00862004 	sllv	a0,a2,a0
9fc00084:	7c451400 	ext	a1,v0,0x10,0x3
9fc00088:	20a50001 	addi	a1,a1,1
9fc0008c:	70852002 	mul	a0,a0,a1
9fc00090:	3c068000 	lui	a2,0x8000
9fc00094:	4080e000 	mtc0	zero,c0_taglo
9fc00098:	00803825 	move	a3,a0

9fc0009c <next_icache_tag>:
9fc0009c:	bcc80000 	cache	0x8,0(a2)
9fc000a0:	20e7ffff 	addi	a3,a3,-1
9fc000a4:	14e0fffd 	bnez	a3,9fc0009c <next_icache_tag>
9fc000a8:	00c33020 	add	a2,a2,v1

9fc000ac <done_icache>:
9fc000ac:	40028000 	mfc0	v0,c0_config
9fc000b0:	24030003 	li	v1,3
9fc000b4:	7c621004 	ins	v0,v1,0x0,0x3
9fc000b8:	40828000 	mtc0	v0,c0_config
9fc000bc:	3c069fc0 	lui	a2,0x9fc0
9fc000c0:	24c600cc 	addiu	a2,a2,204
9fc000c4:	00c00008 	jr	a2
9fc000c8:	000000c0 	ehb

9fc000cc <init_dcache>:
9fc000cc:	40028001 	mfc0	v0,c0_config1
9fc000d0:	7c431280 	ext	v1,v0,0xa,0x3
9fc000d4:	10600011 	beqz	v1,9fc0011c <done_dcache>
9fc000d8:	00000000 	nop
9fc000dc:	24060002 	li	a2,2
9fc000e0:	00661804 	sllv	v1,a2,v1
9fc000e4:	7c441340 	ext	a0,v0,0xd,0x3
9fc000e8:	24060040 	li	a2,64
9fc000ec:	00862004 	sllv	a0,a2,a0
9fc000f0:	7c4511c0 	ext	a1,v0,0x7,0x3
9fc000f4:	20a50001 	addi	a1,a1,1
9fc000f8:	70852002 	mul	a0,a0,a1
9fc000fc:	3c068000 	lui	a2,0x8000
9fc00100:	4080e000 	mtc0	zero,c0_taglo
9fc00104:	4080e002 	mtc0	zero,c0_taglo1
9fc00108:	00803825 	move	a3,a0

9fc0010c <next_dcache_tag>:
9fc0010c:	bcc90000 	cache	0x9,0(a2)
9fc00110:	20e7ffff 	addi	a3,a3,-1
9fc00114:	14e0fffd 	bnez	a3,9fc0010c <next_dcache_tag>
9fc00118:	00c33020 	add	a2,a2,v1

9fc0011c <done_dcache>:
9fc0011c:	3c1f9fc0 	lui	ra,0x9fc0
9fc00120:	27ff013c 	addiu	ra,ra,316
9fc00124:	00002025 	move	a0,zero
9fc00128:	3c029fc0 	lui	v0,0x9fc0
9fc0012c:	24420144 	addiu	v0,v0,324
9fc00130:	4082f000 	mtc0	v0,c0_errorepc
9fc00134:	000000c0 	ehb
9fc00138:	42000018 	eret

9fc0013c <all_done>:
9fc0013c:	1000ffff 	b	9fc0013c <all_done>
9fc00140:	00000000 	nop

9fc00144 <_start>:
9fc00144:	03e08025 	move	s0,ra
9fc00148:	3c1c8001 	lui	gp,0x8001
9fc0014c:	279c8240 	addiu	gp,gp,-32192
9fc00150:	3c1d8004 	lui	sp,0x8004
9fc00154:	27bd0000 	addiu	sp,sp,0
9fc00158:	3c028000 	lui	v0,0x8000
9fc0015c:	24420240 	addiu	v0,v0,576
9fc00160:	3c038000 	lui	v1,0x8000
9fc00164:	24630240 	addiu	v1,v1,576
9fc00168:	10430004 	beq	v0,v1,9fc0017c <_start+0x38>
9fc0016c:	00000000 	nop
9fc00170:	24420004 	addiu	v0,v0,4
9fc00174:	1443fffe 	bne	v0,v1,9fc00170 <_start+0x2c>
9fc00178:	ac40fffc 	sw	zero,-4(v0)
9fc0017c:	24040000 	li	a0,0
9fc00180:	27bdfff0 	addiu	sp,sp,-16
9fc00184:	40026000 	mfc0	v0,c0_status
9fc00188:	7c02b584 	ins	v0,zero,0x16,0x1
9fc0018c:	40826000 	mtc0	v0,c0_status
9fc00190:	000000c0 	ehb
9fc00194:	3c088000 	lui	t0,0x8000
9fc00198:	25080204 	addiu	t0,t0,516
9fc0019c:	0100f809 	jalr	t0
9fc001a0:	00000000 	nop
9fc001a4:	0200f825 	move	ra,s0
9fc001a8:	03e00008 	jr	ra
9fc001ac:	00000000 	nop

Disassembly of section .exception_vector:

80000000 <__exception_entry>:
80000000:	3c1b0000 	lui	k1,0x0
80000004:	277b0000 	addiu	k1,k1,0
80000008:	1360fffd 	beqz	k1,80000000 <__exception_entry>
8000000c:	00000000 	nop
80000010:	03600008 	jr	k1
80000014:	00000000 	nop
	...

80000080 <__xtlb_refill_loop>:
80000080:	3c1b0000 	lui	k1,0x0
80000084:	277b0000 	addiu	k1,k1,0
80000088:	1360fffd 	beqz	k1,80000080 <__xtlb_refill_loop>
8000008c:	00000000 	nop
80000090:	03600008 	jr	k1
80000094:	00000000 	nop
	...

80000100 <__cache_error_loop>:
80000100:	3c1b0000 	lui	k1,0x0
80000104:	277b0000 	addiu	k1,k1,0
80000108:	1360fffd 	beqz	k1,80000100 <__cache_error_loop>
8000010c:	00000000 	nop
80000110:	03600008 	jr	k1
80000114:	00000000 	nop
	...

80000180 <__general_exception_loop>:
80000180:	3c1b0000 	lui	k1,0x0
80000184:	277b0000 	addiu	k1,k1,0
80000188:	1360fffd 	beqz	k1,80000180 <__general_exception_loop>
8000018c:	00000000 	nop
80000190:	03600008 	jr	k1
80000194:	00000000 	nop
	...

Disassembly of section .text:

80000200 <__exception_handle>:
80000200:	00000000 	nop

80000204 <main>:
80000204:	240b0002 	li	t3,2
80000208:	240c0003 	li	t4,3
8000020c:	240d0000 	li	t5,0
80000210:	00000000 	nop
80000214:	018b6824 	and	t5,t4,t3
80000218:	1000ffff 	b	80000218 <main+0x14>
8000021c:	00000000 	nop
80000220:	03e00008 	jr	ra
80000224:	00001025 	move	v0,zero

Disassembly of section .debug_aranges:

00000000 <.debug_aranges>:
   0:	0000001c 	0x1c
   4:	00000002 	srl	zero,zero,0x0
   8:	00040000 	sll	zero,a0,0x0
   c:	00000000 	nop
  10:	9fc00144 	0x9fc00144
  14:	0000006c 	0x6c
	...
  20:	0000001c 	0x1c
  24:	00580002 	0x580002
  28:	00040000 	sll	zero,a0,0x0
  2c:	00000000 	nop
  30:	9fc00000 	0x9fc00000
  34:	00000144 	0x144
	...
  40:	0000001c 	0x1c
  44:	00b00002 	0xb00002
  48:	00040000 	sll	zero,a0,0x0
  4c:	00000000 	nop
  50:	80000000 	lb	zero,0(zero)
  54:	00000198 	0x198
	...
  60:	0000001c 	0x1c
  64:	010e0002 	0x10e0002
  68:	00040000 	sll	zero,a0,0x0
  6c:	00000000 	nop
  70:	80000200 	lb	zero,512(zero)
  74:	00000004 	sllv	zero,zero,zero
	...
  80:	0000001c 	0x1c
  84:	01670002 	0x1670002
  88:	00040000 	sll	zero,a0,0x0
  8c:	00000000 	nop
  90:	80000204 	lb	zero,516(zero)
  94:	00000024 	and	zero,zero,zero
	...

Disassembly of section .debug_info:

00000000 <.debug_info>:
   0:	00000054 	0x54
   4:	00000002 	srl	zero,zero,0x0
   8:	01040000 	0x1040000
   c:	00000000 	nop
  10:	9fc00144 	0x9fc00144
  14:	9fc001b0 	0x9fc001b0
  18:	30747263 	andi	s4,v1,0x7263
  1c:	4300532e 	c0	0x100532e
  20:	73555c3a 	0x73555c3a
  24:	5c737265 	0x5c737265
  28:	696e6144 	0x696e6144
  2c:	7365445c 	udi12	k1,a1,t0,0x11
  30:	706f746b 	s16std	xr1,v1,-70,ptn1
  34:	6d69535c 	0x6d69535c
  38:	74616c75 	jalx	185b1d4 <__memory_size+0x183b9d4>
  3c:	536e6f69 	beql	k1,t6,1bde4 <__isr_vec_space+0x1bdc4>
  40:	6372756f 	0x6372756f
  44:	47007365 	bz.b	$w0,1cddc <__isr_vec_space+0x1cdbc>
  48:	4120554e 	0x4120554e
  4c:	2e322053 	sltiu	s2,s1,8275
  50:	392e3432 	xori	t6,t1,0x3432
  54:	80010030 	lb	at,48(zero)
  58:	00000054 	0x54
  5c:	00140002 	srl	zero,s4,0x0
  60:	01040000 	0x1040000
  64:	00000048 	0x48
  68:	9fc00000 	0x9fc00000
  6c:	9fc00144 	0x9fc00144
  70:	746f6f62 	jalx	1bdbd88 <__memory_size+0x1bbc588>
  74:	4300532e 	c0	0x100532e
  78:	73555c3a 	0x73555c3a
  7c:	5c737265 	0x5c737265
  80:	696e6144 	0x696e6144
  84:	7365445c 	udi12	k1,a1,t0,0x11
  88:	706f746b 	s16std	xr1,v1,-70,ptn1
  8c:	6d69535c 	0x6d69535c
  90:	74616c75 	jalx	185b1d4 <__memory_size+0x183b9d4>
  94:	536e6f69 	beql	k1,t6,1be3c <__isr_vec_space+0x1be1c>
  98:	6372756f 	0x6372756f
  9c:	47007365 	bz.b	$w0,1ce34 <__isr_vec_space+0x1ce14>
  a0:	4120554e 	0x4120554e
  a4:	2e322053 	sltiu	s2,s1,8275
  a8:	392e3432 	xori	t6,t1,0x3432
  ac:	80010030 	lb	at,48(zero)
  b0:	0000005a 	0x5a
  b4:	00280002 	ror	zero,t0,0x0
  b8:	01040000 	0x1040000
  bc:	000000ce 	0xce
  c0:	80000000 	lb	zero,0(zero)
  c4:	80000198 	lb	zero,408(zero)
  c8:	65637865 	0x65637865
  cc:	6f697470 	0x6f697470
  d0:	532e736e 	beql	t9,t6,1ce8c <__isr_vec_space+0x1ce6c>
  d4:	5c3a4300 	0x5c3a4300
  d8:	72657355 	s32sdi	xr13,s3,1392
  dc:	61445c73 	0x61445c73
  e0:	445c696e 	0x445c696e
  e4:	746b7365 	jalx	1adcd94 <__memory_size+0x1abd594>
  e8:	535c706f 	beql	k0,gp,1c2a8 <__isr_vec_space+0x1c288>
  ec:	6c756d69 	0x6c756d69
  f0:	6f697461 	0x6f697461
  f4:	756f536e 	jalx	5bd4db8 <__memory_size+0x5bb55b8>
  f8:	73656372 	0x73656372
  fc:	554e4700 	bnel	t2,t6,11d00 <__isr_vec_space+0x11ce0>
 100:	20534120 	addi	s3,v0,16672
 104:	34322e32 	ori	s2,at,0x2e32
 108:	0030392e 	0x30392e
 10c:	00558001 	movt	s0,v0,$fcc5
 110:	00020000 	sll	zero,v0,0x0
 114:	0000003c 	0x3c
 118:	011b0104 	0x11b0104
 11c:	02000000 	0x2000000
 120:	02048000 	0x2048000
 124:	75648000 	jalx	5920000 <__memory_size+0x5900800>
 128:	2e796d6d 	sltiu	t9,s3,28013
 12c:	3a430053 	xori	v1,s2,0x53
 130:	6573555c 	0x6573555c
 134:	445c7372 	0x445c7372
 138:	5c696e61 	0x5c696e61
 13c:	6b736544 	0x6b736544
 140:	5c706f74 	0x5c706f74
 144:	756d6953 	jalx	5b5a54c <__memory_size+0x5b3ad4c>
 148:	6974616c 	0x6974616c
 14c:	6f536e6f 	0x6f536e6f
 150:	65637275 	0x65637275
 154:	4e470073 	c3	0x470073
 158:	53412055 	beql	k0,at,82b0 <__isr_vec_space+0x8290>
 15c:	322e3220 	andi	t6,s1,0x3220
 160:	30392e34 	andi	t9,at,0x2e34
 164:	3e800100 	0x3e800100
 168:	04000000 	bltz	zero,16c <__isr_vec_space+0x14c>
 16c:	00005000 	sll	t2,zero,0x0
 170:	00010400 	sll	zero,at,0x10
 174:	01000000 	0x1000000
 178:	0000007b 	0x7b
 17c:	00000053 	mtlhx	zero
 180:	80000204 	lb	zero,516(zero)
 184:	00000024 	and	zero,zero,zero
 188:	00000152 	0x152
 18c:	00008202 	srl	s0,zero,0x8
 190:	3a010100 	xori	at,s0,0x100
 194:	04000000 	bltz	zero,198 <__isr_vec_space+0x178>
 198:	24800002 	addiu	zero,a0,2
 19c:	01000000 	0x1000000
 1a0:	0504039c 	0x504039c
 1a4:	00746e69 	0x746e69
	...

Disassembly of section .debug_abbrev:

00000000 <.debug_abbrev>:
   0:	10001101 	b	4408 <__isr_vec_space+0x43e8>
   4:	12011106 	beq	s0,at,4420 <__isr_vec_space+0x4400>
   8:	1b080301 	0x1b080301
   c:	13082508 	beq	t8,t0,9430 <__isr_vec_space+0x9410>
  10:	00000005 	lsa	zero,zero,zero,0x1
  14:	10001101 	b	441c <__isr_vec_space+0x43fc>
  18:	12011106 	beq	s0,at,4434 <__isr_vec_space+0x4414>
  1c:	1b080301 	0x1b080301
  20:	13082508 	beq	t8,t0,9444 <__isr_vec_space+0x9424>
  24:	00000005 	lsa	zero,zero,zero,0x1
  28:	10001101 	b	4430 <__isr_vec_space+0x4410>
  2c:	12011106 	beq	s0,at,4448 <__isr_vec_space+0x4428>
  30:	1b080301 	0x1b080301
  34:	13082508 	beq	t8,t0,9458 <__isr_vec_space+0x9438>
  38:	00000005 	lsa	zero,zero,zero,0x1
  3c:	10001101 	b	4444 <__isr_vec_space+0x4424>
  40:	12011106 	beq	s0,at,445c <__isr_vec_space+0x443c>
  44:	1b080301 	0x1b080301
  48:	13082508 	beq	t8,t0,946c <__isr_vec_space+0x944c>
  4c:	00000005 	lsa	zero,zero,zero,0x1
  50:	25011101 	addiu	at,t0,4353
  54:	030b130e 	0x30b130e
  58:	110e1b0e 	beq	t0,t6,6c94 <__isr_vec_space+0x6c74>
  5c:	10061201 	beq	zero,a2,4864 <__isr_vec_space+0x4844>
  60:	02000017 	0x2000017
  64:	193f002e 	0x193f002e
  68:	0b3a0e03 	j	ce8380c <__memory_size+0xce6400c>
  6c:	13490b3b 	beq	k0,t1,2d5c <__isr_vec_space+0x2d3c>
  70:	06120111 	bltzall	s0,4b8 <__isr_vec_space+0x498>
  74:	42971840 	c0	0x971840
  78:	03000019 	multu	t8,zero
  7c:	0b0b0024 	j	c2c0090 <__memory_size+0xc2a0890>
  80:	08030b3e 	j	c2cf8 <__memory_size+0xa34f8>
  84:	Address 0x0000000000000084 is out of bounds.


Disassembly of section .debug_line:

00000000 <.debug_line>:
   0:	00000044 	0x44
   4:	001d0002 	srl	zero,sp,0x0
   8:	01010000 	0x1010000
   c:	000d0efb 	0xd0efb
  10:	01010101 	0x1010101
  14:	01000000 	0x1000000
  18:	00010000 	sll	zero,at,0x0
  1c:	30747263 	andi	s4,v1,0x7263
  20:	0000532e 	0x532e
  24:	00000000 	nop
  28:	01440205 	0x1440205
  2c:	0f039fc0 	jal	c0e7f00 <__memory_size+0xc0c8700>
  30:	84844c01 	lh	a0,19457(a0)
  34:	4b848383 	c2	0x1848383
  38:	4e4c8513 	c3	0x4c8513
  3c:	4d4b4b4b 	0x4d4b4b4b
  40:	024b8583 	0x24b8583
  44:	01010008 	0x1010008
  48:	00000082 	srl	zero,zero,0x2
  4c:	001d0002 	srl	zero,sp,0x0
  50:	01010000 	0x1010000
  54:	000d0efb 	0xd0efb
  58:	01010101 	0x1010101
  5c:	01000000 	0x1000000
  60:	00010000 	sll	zero,at,0x0
  64:	746f6f62 	jalx	1bdbd88 <__memory_size+0x1bbc588>
  68:	0000532e 	0x532e
  6c:	00000000 	nop
  70:	00000205 	0x205
  74:	13039fc0 	beq	t8,v1,fffe7f78 <__entry+0x403e7f78>
  78:	4d835101 	0x4d835101
  7c:	4a0a034d 	c2	0xa034d
  80:	4d4b4b4b 	0x4d4b4b4b
  84:	4b4b4b4b 	c2	0x14b4b4b
  88:	4b4d4b4b 	c2	0x14d4b4b
  8c:	4c4b4b4b 	0x4c4b4b4b
  90:	4b4b514b 	c2	0x14b514b
  94:	4c4b4c4b 	0x4c4b4c4b
  98:	4b4c4b4b 	c2	0x14c4b4b
  9c:	4b4c4b4b 	c2	0x14c4b4b
  a0:	4b4b4b4f 	c2	0x14b4b4f
  a4:	4b4a0c03 	c2	0x14a0c03
  a8:	834c4b4b 	lb	t4,19275(k0)
  ac:	4b4b504b 	c2	0x14b504b
  b0:	4c4b4c4b 	0x4c4b4c4b
  b4:	4b4c4b4b 	c2	0x14c4b4b
  b8:	4b4c4b4b 	c2	0x14c4b4b
  bc:	4b4b4f4b 	c2	0x14b4f4b
  c0:	4c834f4b 	0x4c834f4b
  c4:	504e4b83 	beql	v0,t6,12ed4 <__isr_vec_space+0x12eb4>
  c8:	0004024b 	0x4024b
  cc:	00490101 	0x490101
  d0:	00020000 	sll	zero,v0,0x0
  d4:	00000023 	negu	zero,zero
  d8:	0efb0101 	jal	bec0404 <__memory_size+0xbea0c04>
  dc:	0101000d 	break	0x101
  e0:	00000101 	0x101
  e4:	00000100 	sll	zero,zero,0x4
  e8:	78650001 	bmnzi.b	$w0,$w0,0x65
  ec:	74706563 	jalx	1c1958c <__memory_size+0x1bf9d8c>
  f0:	736e6f69 	0x736e6f69
  f4:	0000532e 	0x532e
  f8:	00000000 	nop
  fc:	00000205 	0x205
 100:	2c038000 	sltiu	v1,zero,-32768
 104:	02838301 	0x2838301
 108:	83831770 	lb	v1,6000(gp)
 10c:	83177002 	lb	s7,28674(t8)
 110:	17700283 	bne	k1,s0,b20 <__isr_vec_space+0xb00>
 114:	08028383 	j	a0e0c <__memory_size+0x8160c>
 118:	33010100 	andi	at,t8,0x100
 11c:	02000000 	0x2000000
 120:	00001e00 	sll	v1,zero,0x18
 124:	fb010100 	sdc2	$1,256(t8)
 128:	01000d0e 	0x1000d0e
 12c:	00010101 	0x10101
 130:	00010000 	sll	zero,at,0x0
 134:	64000100 	0x64000100
 138:	796d6d75 	0x796d6d75
 13c:	0000532e 	0x532e
 140:	00000000 	nop
 144:	02000205 	0x2000205
 148:	3a038000 	xori	v1,s0,0x8000
 14c:	00040201 	0x40201
 150:	00350101 	0x350101
 154:	00020000 	sll	zero,v0,0x0
 158:	0000001d 	0x1d
 15c:	0efb0101 	jal	bec0404 <__memory_size+0xbea0c04>
 160:	0101000d 	break	0x101
 164:	00000101 	0x101
 168:	00000100 	sll	zero,zero,0x4
 16c:	616d0001 	0x616d0001
 170:	632e6e69 	0x632e6e69
 174:	00000000 	nop
 178:	02050000 	0x2050000
 17c:	80000204 	lb	zero,516(zero)
 180:	0b031401 	j	c0c5004 <__memory_size+0xc0a5804>
 184:	0802ac08 	j	ab020 <__memory_size+0x8b820>
 188:	Address 0x0000000000000188 is out of bounds.


Disassembly of section .debug_frame:

00000000 <.debug_frame>:
   0:	0000000c 	syscall
   4:	ffffffff 	sdc3	$31,-1(ra)
   8:	7c010001 	0x7c010001
   c:	001d0d1f 	0x1d0d1f
  10:	0000000c 	syscall
  14:	00000000 	nop
  18:	80000204 	lb	zero,516(zero)
  1c:	00000024 	and	zero,zero,zero

Disassembly of section .debug_str:

00000000 <.debug_str>:
   0:	20554e47 	addi	s5,v0,20039
   4:	2e342043 	sltiu	s4,s1,8259
   8:	20322e39 	addi	s2,at,11833
   c:	6c656d2d 	0x6c656d2d
  10:	616d2d20 	0x616d2d20
  14:	3d686372 	0x3d686372
  18:	6b34316d 	0x6b34316d
  1c:	6d2d2063 	0x6d2d2063
  20:	74666f73 	jalx	199bdcc <__memory_size+0x197c5cc>
  24:	6f6c662d 	0x6f6c662d
  28:	2d207461 	sltiu	zero,t1,29793
  2c:	746c706d 	jalx	1b1c1b4 <__memory_size+0x1afc9b4>
  30:	696d2d20 	0x696d2d20
  34:	32337370 	andi	s3,s1,0x7370
  38:	2d203272 	sltiu	zero,t1,12914
  3c:	6e79736d 	0x6e79736d
  40:	2d206963 	sltiu	zero,t1,26979
  44:	6962616d 	0x6962616d
  48:	2032333d 	addi	s2,at,13117
  4c:	2d20672d 	sltiu	zero,t1,26413
  50:	4300314f 	c0	0x100314f
  54:	73555c3a 	0x73555c3a
  58:	5c737265 	0x5c737265
  5c:	696e6144 	0x696e6144
  60:	7365445c 	udi12	k1,a1,t0,0x11
  64:	706f746b 	s16std	xr1,v1,-70,ptn1
  68:	6d69535c 	0x6d69535c
  6c:	74616c75 	jalx	185b1d4 <__memory_size+0x183b9d4>
  70:	536e6f69 	beql	k1,t6,1be18 <__isr_vec_space+0x1bdf8>
  74:	6372756f 	0x6372756f
  78:	6d007365 	0x6d007365
  7c:	2e6e6961 	sltiu	t6,s3,26977
  80:	616d0063 	0x616d0063
  84:	Address 0x0000000000000084 is out of bounds.


Disassembly of section .pdr:

00000000 <.pdr>:
   0:	9fc00144 	0x9fc00144
	...
  20:	9fc00000 	0x9fc00000
	...
  40:	80000000 	lb	zero,0(zero)
	...
  60:	80000200 	lb	zero,512(zero)
	...
  80:	80000200 	lb	zero,512(zero)
	...
  a0:	80000200 	lb	zero,512(zero)
	...
  c0:	80000200 	lb	zero,512(zero)
	...
  e0:	80000200 	lb	zero,512(zero)
	...
 100:	80000204 	lb	zero,516(zero)
	...
 118:	0000001d 	0x1d
 11c:	0000001f 	0x1f

Disassembly of section .gnu.attributes:

00000000 <.gnu.attributes>:
   0:	00000f41 	0xf41
   4:	756e6700 	jalx	5b99c00 <__memory_size+0x5b7a400>
   8:	00070100 	sll	zero,a3,0x4
   c:	03040000 	0x3040000

Disassembly of section .comment:

00000000 <.comment>:
   0:	3a434347 	xori	v1,s2,0x4347
   4:	6f432820 	0x6f432820
   8:	63736564 	0x63736564
   c:	20657061 	addi	a1,v1,28769
  10:	20554e47 	addi	s5,v0,20039
  14:	6c6f6f54 	0x6c6f6f54
  18:	30322073 	andi	s2,at,0x2073
  1c:	302e3631 	andi	t6,at,0x3631
  20:	33302d35 	andi	s0,t9,0x2d35
  24:	726f6620 	0x726f6620
  28:	50494d20 	beql	v0,t1,134ac <__isr_vec_space+0x1348c>
  2c:	544d2053 	bnel	v0,t5,817c <__isr_vec_space+0x815c>
  30:	61422049 	0x61422049
  34:	4d206572 	0x4d206572
  38:	6c617465 	0x6c617465
  3c:	2e342029 	sltiu	s4,s1,8233
  40:	00322e39 	0x322e39
