	.section .mdebug.abi32
	.previous
	.nan	legacy
	.module	softfloat
	.module	oddspreg
	.text
.Ltext0:
	.cfi_sections	.debug_frame

	.comm	test_array,1200,4
	.rdata
	.align	2
.LC0:
	.ascii	"Result[0]=%d, Result[50]=%d, Result[99]=%d\012\000"
	.text
	.align	2
	.globl	main
.LFB0 = .
	.file 1 "main.c"
	.loc 1 39 0
	.cfi_startproc
	.set	nomips16
	.set	nomicromips
	.ent	main
	.type	main, @function
main:
	.frame	$fp,40,$31		# vars= 16, regs= 2/0, args= 16, gp= 0
	.mask	0xc0000000,-4
	.fmask	0x00000000,0
	addiu	$sp,$sp,-40
	.cfi_def_cfa_offset 40
	sw	$31,36($sp)
	sw	$fp,32($sp)
	.cfi_offset 31, -4
	.cfi_offset 30, -8
	move	$fp,$sp
	.cfi_def_cfa_register 30
	.loc 1 44 0
	sw	$0,16($fp)
	b	.L2
.L3:
	.loc 1 44 0 is_stmt 0 discriminator 3
	lui	$2,%hi(test_array)
	lw	$3,16($fp)
	sll	$3,$3,2
	addiu	$2,$2,%lo(test_array)
	addu	$2,$3,$2
	lw	$3,16($fp)
	sw	$3,0($2)
	lw	$2,16($fp)
	addiu	$2,$2,1
	sw	$2,16($fp)
.L2:
	.loc 1 44 0 discriminator 1
	lw	$2,16($fp)
	slt	$2,$2,300
	bne	$2,$0,.L3
.LBB2 = .
	.loc 1 47 0 is_stmt 1
	li	$2,2			# 0x2
 #APP
 # 47 "main.c" 1
	.set push 
.set noreorder
mtc0 $2,$25,0
ehb
.set pop
 # 0 "" 2
 #NO_APP
	li	$2,34			# 0x22
 #APP
 # 47 "main.c" 1
	.set push 
.set noreorder
mtc0 $2,$25,2
ehb
.set pop
 # 0 "" 2
 # 47 "main.c" 1
	.set push 
.set noreorder
mtc0 $0,$25,1
ehb
.set pop
 # 0 "" 2
 # 47 "main.c" 1
	.set push 
.set noreorder
mtc0 $0,$25,3
ehb
.set pop
 # 0 "" 2
 #NO_APP
.LBE2 = .
	.loc 1 49 0
 #APP
 # 49 "main.c" 1
	   .set noreorder;   lui     $t6, 0x8000;   addiu   $t6, $t6, test_array;   addi    $t1,$0,100;LOOP:  LW      $t2,0($t6);       LW      $t3,400($t6);       ADDI    $t1,$t1,-1;       SUB     $t2,$t3,$t2;       SW      $t2,800($t6);       BNE     $t1,$0,LOOP;       ADDI    $t6,$t6,4;   addi    $t1,$t1,100;   .set reorder;
 # 0 "" 2
 #NO_APP
.LBB3 = .
.LBB4 = .
	.loc 1 67 0
 #APP
 # 67 "main.c" 1
	mfc0 $2,$25,1
 # 0 "" 2
 #NO_APP
	move	$31,$2
	move	$2,$31
.LBE4 = .
	sw	$2,20($fp)
.LBB5 = .
 #APP
 # 67 "main.c" 1
	mfc0 $2,$25,3
 # 0 "" 2
 #NO_APP
	move	$31,$2
	move	$2,$31
.LBE5 = .
	sw	$2,24($fp)
 #APP
 # 67 "main.c" 1
	.set push 
.set noreorder
mtc0 $0,$25,0
ehb
.set pop
 # 0 "" 2
 # 67 "main.c" 1
	.set push 
.set noreorder
mtc0 $0,$25,2
ehb
.set pop
 # 0 "" 2
 # 67 "main.c" 1
	.set push 
.set noreorder
mtc0 $0,$25,1
ehb
.set pop
 # 0 "" 2
 # 67 "main.c" 1
	.set push 
.set noreorder
mtc0 $0,$25,3
ehb
.set pop
 # 0 "" 2
 #NO_APP
.LBE3 = .
	.loc 1 69 0
	jal	fdc_init
	.loc 1 70 0
	lui	$2,%hi(test_array)
	addiu	$2,$2,%lo(test_array)
	lw	$5,800($2)
	lui	$2,%hi(test_array)
	addiu	$2,$2,%lo(test_array)
	lw	$6,1000($2)
	lui	$2,%hi(test_array)
	addiu	$2,$2,%lo(test_array)
	lw	$3,1196($2)
	lui	$2,%hi(.LC0)
	addiu	$4,$2,%lo(.LC0)
	move	$7,$3
	jal	fdc_printf
.L8:
	.loc 1 75 0
	li	$2,-1082130432			# 0xffffffffbf800000
	ori	$2,$2,0x4
	lw	$2,0($2)
	beq	$2,$0,.L5
	li	$3,1			# 0x1
	beq	$2,$3,.L6
	b	.L9
.L5:
	.loc 1 77 0
	lw	$2,20($fp)
	move	$4,$2
	jal	writeValTo7Segs
	.loc 1 78 0
	b	.L7
.L6:
	.loc 1 80 0
	lw	$2,24($fp)
	move	$4,$2
	jal	writeValTo7Segs
	.loc 1 81 0
	b	.L7
.L9:
	.loc 1 83 0
	move	$4,$0
	jal	writeValTo7Segs
.L7:
	.loc 1 85 0
	b	.L8
	.end	main
	.cfi_endproc
.LFE0:
	.size	main, .-main
	.align	2
	.globl	writeValTo7Segs
.LFB1 = .
	.loc 1 92 0
	.cfi_startproc
	.set	nomips16
	.set	nomicromips
	.ent	writeValTo7Segs
	.type	writeValTo7Segs, @function
writeValTo7Segs:
	.frame	$fp,24,$31		# vars= 16, regs= 1/0, args= 0, gp= 0
	.mask	0x40000000,-4
	.fmask	0x00000000,0
	.set	noreorder
	.set	nomacro
	addiu	$sp,$sp,-24
	.cfi_def_cfa_offset 24
	sw	$fp,20($sp)
	.cfi_offset 30, -4
	move	$fp,$sp
	.cfi_def_cfa_register 30
	sw	$4,24($fp)
	.loc 1 94 0
	sw	$0,4($fp)
	.loc 1 95 0
	sw	$0,8($fp)
	.loc 1 98 0
	sw	$0,4($fp)
	b	.L11
	nop

.L13:
	.loc 1 99 0 discriminator 4
	lw	$3,24($fp)
	li	$2,-859045888			# 0xffffffffcccc0000
	ori	$2,$2,0xcccd
	multu	$3,$2
	mfhi	$2
	srl	$2,$2,3
	sll	$2,$2,1
	sll	$4,$2,2
	addu	$2,$2,$4
	subu	$2,$3,$2
	sw	$2,0($fp)
	.loc 1 100 0 discriminator 4
	lw	$3,0($fp)
	lw	$2,4($fp)
	sll	$2,$2,2
	sll	$2,$3,$2
	move	$3,$2
	lw	$2,8($fp)
	or	$2,$3,$2
	sw	$2,8($fp)
	.loc 1 101 0 discriminator 4
	lw	$3,24($fp)
	li	$2,-859045888			# 0xffffffffcccc0000
	ori	$2,$2,0xcccd
	multu	$3,$2
	mfhi	$2
	srl	$2,$2,3
	sw	$2,24($fp)
	.loc 1 102 0 discriminator 4
	lw	$2,4($fp)
	li	$3,1			# 0x1
	sll	$2,$3,$2
	move	$3,$2
	lw	$2,12($fp)
	or	$2,$3,$2
	sw	$2,12($fp)
	.loc 1 98 0 discriminator 4
	lw	$2,4($fp)
	addiu	$2,$2,1
	sw	$2,4($fp)
.L11:
	.loc 1 98 0 is_stmt 0 discriminator 1
	lw	$2,24($fp)
	beq	$2,$0,.L12
	nop

	.loc 1 98 0 discriminator 3
	lw	$2,4($fp)
	slt	$2,$2,8
	bne	$2,$0,.L13
	nop

.L12:
	.loc 1 105 0 is_stmt 1
	li	$2,-1082130432			# 0xffffffffbf800000
	ori	$2,$2,0x10
	lw	$3,8($fp)
	sw	$3,0($2)
	.loc 1 106 0
	li	$2,-1082130432			# 0xffffffffbf800000
	ori	$2,$2,0xc
	lw	$3,12($fp)
	nor	$3,$0,$3
	sw	$3,0($2)
	.loc 1 108 0
	nop
	.loc 1 109 0
	move	$sp,$fp
	.cfi_def_cfa_register 29
	lw	$fp,20($sp)
	addiu	$sp,$sp,24
	.cfi_restore 30
	.cfi_def_cfa_offset 0
	jr	$31
	nop

	.set	macro
	.set	reorder
	.end	writeValTo7Segs
	.cfi_endproc
.LFE1:
	.size	writeValTo7Segs, .-writeValTo7Segs
	.align	2
	.globl	_mips_handle_exception
.LFB2 = .
	.loc 1 113 0
	.cfi_startproc
	.set	nomips16
	.set	nomicromips
	.ent	_mips_handle_exception
	.type	_mips_handle_exception, @function
_mips_handle_exception:
	.frame	$fp,8,$31		# vars= 0, regs= 1/0, args= 0, gp= 0
	.mask	0x40000000,-4
	.fmask	0x00000000,0
	.set	noreorder
	.set	nomacro
	addiu	$sp,$sp,-8
	.cfi_def_cfa_offset 8
	sw	$fp,4($sp)
	.cfi_offset 30, -4
	move	$fp,$sp
	.cfi_def_cfa_register 30
	sw	$4,8($fp)
	sw	$5,12($fp)
	.loc 1 114 0
	li	$2,-1082130432			# 0xffffffffbf800000
	li	$3,32769			# 0x8001
	sw	$3,0($2)
.L16:
	.loc 1 115 0 discriminator 1
	b	.L16
	nop

	.set	macro
	.set	reorder
	.end	_mips_handle_exception
	.cfi_endproc
.LFE2:
	.size	_mips_handle_exception, .-_mips_handle_exception
.Letext0:
	.file 2 "c:\\progra~1\\imagin~1\\toolch~1\\mips-mti-elf\\2016.05-03\\mips-mti-elf\\include\\mips\\m32c0.h"