
program.elf:     file format elf32-tradlittlemips

SYMBOL TABLE:
9fc00000 l    d  .bootrom	00000000 .bootrom
80000000 l    d  .exception_vector	00000000 .exception_vector
80000200 l    d  .text	00000000 .text
80001160 l    d  .rodata	00000000 .rodata
800011a0 l    d  .sbss	00000000 .sbss
800011bc l    d  .bss	00000000 .bss
00000000 l    d  .debug_aranges	00000000 .debug_aranges
00000000 l    d  .debug_info	00000000 .debug_info
00000000 l    d  .debug_abbrev	00000000 .debug_abbrev
00000000 l    d  .debug_line	00000000 .debug_line
00000000 l    d  .debug_frame	00000000 .debug_frame
00000000 l    d  .debug_str	00000000 .debug_str
00000000 l    d  .mdebug.abi32	00000000 .mdebug.abi32
00000000 l    d  .pdr	00000000 .pdr
00000000 l    d  .gnu.attributes	00000000 .gnu.attributes
00000000 l    d  .comment	00000000 .comment
00000000 l    df *ABS*	00000000 boot.o
9fc00004 l       .bootrom	00000000 init_cp0
9fc00018 l       .bootrom	00000000 init_tlb
9fc00060 l       .bootrom	00000000 init_icache
9fc00044 l       .bootrom	00000000 next_tlb_entry
9fc000ac l       .bootrom	00000000 done_icache
9fc0009c l       .bootrom	00000000 next_icache_tag
9fc000ac l       .bootrom	00000000 enable_k0_cache
9fc000cc l       .bootrom	00000000 init_dcache
9fc0011c l       .bootrom	00000000 done_dcache
9fc0010c l       .bootrom	00000000 next_dcache_tag
9fc0013c l       .bootrom	00000000 all_done
00000000 l    df *ABS*	00000000 exceptions.o
80000000 l       .exception_vector	00000000 __tlb_refill_loop
80000080 l       .exception_vector	00000000 __xtlb_refill_loop
80000100 l       .exception_vector	00000000 __cache_error_loop
80000180 l       .exception_vector	00000000 __general_exception_loop
00000000 l    df *ABS*	00000000 main.c
8000028c l       .text	00000000 LOOP
00000000 l    df *ABS*	00000000 fdc_putchar.c
800011b0 l     O .sbss	00000004 gCDMMBase
800011b4 l     O .sbss	00000004 cdmm_was_mapped
800011b8 l     O .sbss	00000004 fdcBaseAddr
800011ac l     O .sbss	00000004 fdc_char_count
800011a8 l     O .sbss	00000004 timeout
800011a4 l     O .sbss	00000004 fdc_buff
800011a0 l     O .sbss	00000004 waitcount
00000000 l    df *ABS*	00000000 fdc_printf.c
80000714 l     F .text	00000008 fdc_printchar.constprop.0
800011bc g     O .bss	000004b0 test_array
80000c74 g     F .text	0000044c fdc_print
800011a0 g       .sbss	00000000 _fdata
80000200  w    F .text	00000000 __exception_handle_verbose
80001110 g     F .text	00000034 fdc_sprintf
80001144 g       .text	00000000 _etext
800091a0 g       *ABS*	00000000 _gp
00000020 g       *ABS*	00000000 __isr_vec_space
800011bc g       .bss	00000000 _bss_start
00000000 g       *ABS*	00000000 __DYNAMIC
800010c0 g     F .text	00000048 fdc_printf
00000001 g       *ABS*	00000000 __use_excpt_boot
00000000  w      *UND*	00000000 _mips_xtlb_refill
800004a4 g     F .text	00000028 _mips_handle_exception
8000056c g     F .text	000000c8 fdc_init
80000200  w    F .text	00000000 __register_excpt_boot
80001108 g     F .text	00000008 fdc_flush
8000071c g     F .text	00000028 fdc_printchar
80000200  w    F .text	00000000 __register_excpt_handler
80000000 g       *ABS*	00000000 __app_start
800004e4 g     F .text	00000008 ReadCount
80000000 g       *ABS*	00000000 __flash_app_start
80000200 g       .text	00000000 _ftext
9fc00144 g     F .bootrom	00000070 _start
80000398 g     F .text	0000010c writeValTo7Segs
80000744 g     F .text	0000016c fdc_prints
800008b0 g     F .text	000003c4 fdc_printi
80000000 g       *ABS*	00000000 __excpt_ebase
80000204 g     F .text	00000194 main
80000200 g     F .text	00000000 __exception_handle
bfc00000 g       *ABS*	00000000 __entry
80000200  w    F .text	00000004 __getargs
800004dc g     F .text	00000008 ReadCause
00000000  w      *UND*	00000000 _mips_general_exception
800004ec g     F .text	00000080 fdc_hw_find_base_addr
00000000  w      *UND*	00000000 _mips_tlb_refill
00000000  w      *UND*	00000000 _mips_cache_error
80040000 g       *ABS*	00000000 __stack
80000000 g     F .exception_vector	00000198 __exception_entry
80000000 g       .exception_vector	00000000 __base
800011a0 g       .sbss	00000000 _edata
bfc00000 g       *ABS*	00000000 __flash_start
8000166c g       .bss	00000000 _end
80000634 g     F .text	000000e0 fdc_putchar
9fc00000 g     F .bootrom	00000144 __reset_vector
0001f800 g       *ABS*	00000000 __memory_size
800004d4 g     F .text	00000008 WriteCDMMBase
800091a0 g       *ABS*	00000000 __global
800004cc g     F .text	00000008 ReadConfig3
80000200  w    F .text	00000000 __isr_vec
00000000 g       *ABS*	00000000 __isr_vec_count
800011a0 g       .sbss	00000000 _fbss



Disassembly of section .bootrom:

9fc00000 <__reset_vector>:
C:\Users\Dani\Desktop\Exercise3_Reordered/boot.S:20
9fc00000:	40804800 	mtc0	zero,c0_count

9fc00004 <init_cp0>:
C:\Users\Dani\Desktop\Exercise3_Reordered/boot.S:27
9fc00004:	3c030040 	lui	v1,0x40
9fc00008:	34630004 	ori	v1,v1,0x4
C:\Users\Dani\Desktop\Exercise3_Reordered/boot.S:28
9fc0000c:	40836000 	mtc0	v1,c0_status
C:\Users\Dani\Desktop\Exercise3_Reordered/boot.S:31
9fc00010:	40806800 	mtc0	zero,c0_cause
C:\Users\Dani\Desktop\Exercise3_Reordered/boot.S:34
9fc00014:	40805800 	mtc0	zero,c0_compare

9fc00018 <init_tlb>:
C:\Users\Dani\Desktop\Exercise3_Reordered/boot.S:44
9fc00018:	40038000 	mfc0	v1,c0_config
C:\Users\Dani\Desktop\Exercise3_Reordered/boot.S:45
9fc0001c:	7c6311c0 	ext	v1,v1,0x7,0x3
C:\Users\Dani\Desktop\Exercise3_Reordered/boot.S:46
9fc00020:	24070001 	li	a3,1
C:\Users\Dani\Desktop\Exercise3_Reordered/boot.S:47
9fc00024:	1467000e 	bne	v1,a3,9fc00060 <init_icache>
C:\Users\Dani\Desktop\Exercise3_Reordered/boot.S:50
9fc00028:	40028001 	mfc0	v0,c0_config1
C:\Users\Dani\Desktop\Exercise3_Reordered/boot.S:51
9fc0002c:	7c432e40 	ext	v1,v0,0x19,0x6
C:\Users\Dani\Desktop\Exercise3_Reordered/boot.S:52
9fc00030:	40801000 	mtc0	zero,c0_entrylo0
C:\Users\Dani\Desktop\Exercise3_Reordered/boot.S:53
9fc00034:	40801800 	mtc0	zero,c0_entrylo1
C:\Users\Dani\Desktop\Exercise3_Reordered/boot.S:54
9fc00038:	40802800 	mtc0	zero,c0_pagemask
C:\Users\Dani\Desktop\Exercise3_Reordered/boot.S:55
9fc0003c:	40803000 	mtc0	zero,c0_wired
C:\Users\Dani\Desktop\Exercise3_Reordered/boot.S:56
9fc00040:	3c048000 	lui	a0,0x8000

9fc00044 <next_tlb_entry>:
C:\Users\Dani\Desktop\Exercise3_Reordered/boot.S:59
9fc00044:	40830000 	mtc0	v1,c0_index
C:\Users\Dani\Desktop\Exercise3_Reordered/boot.S:60
9fc00048:	40845000 	mtc0	a0,c0_entryhi
C:\Users\Dani\Desktop\Exercise3_Reordered/boot.S:61
9fc0004c:	000000c0 	ehb
C:\Users\Dani\Desktop\Exercise3_Reordered/boot.S:62
9fc00050:	42000002 	tlbwi
C:\Users\Dani\Desktop\Exercise3_Reordered/boot.S:63
9fc00054:	20844000 	addi	a0,a0,16384
C:\Users\Dani\Desktop\Exercise3_Reordered/boot.S:65
9fc00058:	1460fffa 	bnez	v1,9fc00044 <next_tlb_entry>
C:\Users\Dani\Desktop\Exercise3_Reordered/boot.S:66
9fc0005c:	2063ffff 	addi	v1,v1,-1

9fc00060 <init_icache>:
C:\Users\Dani\Desktop\Exercise3_Reordered/boot.S:73
9fc00060:	40028001 	mfc0	v0,c0_config1
C:\Users\Dani\Desktop\Exercise3_Reordered/boot.S:74
9fc00064:	7c4314c0 	ext	v1,v0,0x13,0x3
C:\Users\Dani\Desktop\Exercise3_Reordered/boot.S:75
9fc00068:	10600010 	beqz	v1,9fc000ac <done_icache>
C:\Users\Dani\Desktop\Exercise3_Reordered/boot.S:76
9fc0006c:	00000000 	nop
C:\Users\Dani\Desktop\Exercise3_Reordered/boot.S:78
9fc00070:	24060002 	li	a2,2
C:\Users\Dani\Desktop\Exercise3_Reordered/boot.S:79
9fc00074:	00661804 	sllv	v1,a2,v1
C:\Users\Dani\Desktop\Exercise3_Reordered/boot.S:81
9fc00078:	7c441580 	ext	a0,v0,0x16,0x3
C:\Users\Dani\Desktop\Exercise3_Reordered/boot.S:82
9fc0007c:	24060040 	li	a2,64
C:\Users\Dani\Desktop\Exercise3_Reordered/boot.S:83
9fc00080:	00862004 	sllv	a0,a2,a0
C:\Users\Dani\Desktop\Exercise3_Reordered/boot.S:85
9fc00084:	7c451400 	ext	a1,v0,0x10,0x3
C:\Users\Dani\Desktop\Exercise3_Reordered/boot.S:86
9fc00088:	20a50001 	addi	a1,a1,1
C:\Users\Dani\Desktop\Exercise3_Reordered/boot.S:87
9fc0008c:	70852002 	mul	a0,a0,a1
C:\Users\Dani\Desktop\Exercise3_Reordered/boot.S:88
9fc00090:	3c068000 	lui	a2,0x8000
C:\Users\Dani\Desktop\Exercise3_Reordered/boot.S:90
9fc00094:	4080e000 	mtc0	zero,c0_taglo
C:\Users\Dani\Desktop\Exercise3_Reordered/boot.S:91
9fc00098:	00803825 	move	a3,a0

9fc0009c <next_icache_tag>:
C:\Users\Dani\Desktop\Exercise3_Reordered/boot.S:96
9fc0009c:	bcc80000 	cache	0x8,0(a2)
C:\Users\Dani\Desktop\Exercise3_Reordered/boot.S:97
9fc000a0:	20e7ffff 	addi	a3,a3,-1
C:\Users\Dani\Desktop\Exercise3_Reordered/boot.S:98
9fc000a4:	14e0fffd 	bnez	a3,9fc0009c <next_icache_tag>
C:\Users\Dani\Desktop\Exercise3_Reordered/boot.S:99
9fc000a8:	00c33020 	add	a2,a2,v1

9fc000ac <done_icache>:
C:\Users\Dani\Desktop\Exercise3_Reordered/boot.S:111
9fc000ac:	40028000 	mfc0	v0,c0_config
C:\Users\Dani\Desktop\Exercise3_Reordered/boot.S:112
9fc000b0:	24030003 	li	v1,3
C:\Users\Dani\Desktop\Exercise3_Reordered/boot.S:113
9fc000b4:	7c621004 	ins	v0,v1,0x0,0x3
C:\Users\Dani\Desktop\Exercise3_Reordered/boot.S:114
9fc000b8:	40828000 	mtc0	v0,c0_config
C:\Users\Dani\Desktop\Exercise3_Reordered/boot.S:116
9fc000bc:	3c069fc0 	lui	a2,0x9fc0
9fc000c0:	24c600cc 	addiu	a2,a2,204
C:\Users\Dani\Desktop\Exercise3_Reordered/boot.S:117
9fc000c4:	00c00008 	jr	a2
C:\Users\Dani\Desktop\Exercise3_Reordered/boot.S:118
9fc000c8:	000000c0 	ehb

9fc000cc <init_dcache>:
C:\Users\Dani\Desktop\Exercise3_Reordered/boot.S:124
9fc000cc:	40028001 	mfc0	v0,c0_config1
C:\Users\Dani\Desktop\Exercise3_Reordered/boot.S:125
9fc000d0:	7c431280 	ext	v1,v0,0xa,0x3
C:\Users\Dani\Desktop\Exercise3_Reordered/boot.S:126
9fc000d4:	10600011 	beqz	v1,9fc0011c <done_dcache>
C:\Users\Dani\Desktop\Exercise3_Reordered/boot.S:127
9fc000d8:	00000000 	nop
C:\Users\Dani\Desktop\Exercise3_Reordered/boot.S:129
9fc000dc:	24060002 	li	a2,2
C:\Users\Dani\Desktop\Exercise3_Reordered/boot.S:130
9fc000e0:	00661804 	sllv	v1,a2,v1
C:\Users\Dani\Desktop\Exercise3_Reordered/boot.S:132
9fc000e4:	7c441340 	ext	a0,v0,0xd,0x3
C:\Users\Dani\Desktop\Exercise3_Reordered/boot.S:133
9fc000e8:	24060040 	li	a2,64
C:\Users\Dani\Desktop\Exercise3_Reordered/boot.S:134
9fc000ec:	00862004 	sllv	a0,a2,a0
C:\Users\Dani\Desktop\Exercise3_Reordered/boot.S:136
9fc000f0:	7c4511c0 	ext	a1,v0,0x7,0x3
C:\Users\Dani\Desktop\Exercise3_Reordered/boot.S:137
9fc000f4:	20a50001 	addi	a1,a1,1
C:\Users\Dani\Desktop\Exercise3_Reordered/boot.S:138
9fc000f8:	70852002 	mul	a0,a0,a1
C:\Users\Dani\Desktop\Exercise3_Reordered/boot.S:139
9fc000fc:	3c068000 	lui	a2,0x8000
C:\Users\Dani\Desktop\Exercise3_Reordered/boot.S:141
9fc00100:	4080e000 	mtc0	zero,c0_taglo
C:\Users\Dani\Desktop\Exercise3_Reordered/boot.S:142
9fc00104:	4080e002 	mtc0	zero,c0_taglo1
C:\Users\Dani\Desktop\Exercise3_Reordered/boot.S:143
9fc00108:	00803825 	move	a3,a0

9fc0010c <next_dcache_tag>:
C:\Users\Dani\Desktop\Exercise3_Reordered/boot.S:148
9fc0010c:	bcc90000 	cache	0x9,0(a2)
C:\Users\Dani\Desktop\Exercise3_Reordered/boot.S:149
9fc00110:	20e7ffff 	addi	a3,a3,-1
C:\Users\Dani\Desktop\Exercise3_Reordered/boot.S:150
9fc00114:	14e0fffd 	bnez	a3,9fc0010c <next_dcache_tag>
C:\Users\Dani\Desktop\Exercise3_Reordered/boot.S:151
9fc00118:	00c33020 	add	a2,a2,v1

9fc0011c <done_dcache>:
C:\Users\Dani\Desktop\Exercise3_Reordered/boot.S:156
9fc0011c:	3c1f9fc0 	lui	ra,0x9fc0
9fc00120:	27ff013c 	addiu	ra,ra,316
C:\Users\Dani\Desktop\Exercise3_Reordered/boot.S:157
9fc00124:	00002025 	move	a0,zero
C:\Users\Dani\Desktop\Exercise3_Reordered/boot.S:159
9fc00128:	3c029fc0 	lui	v0,0x9fc0
9fc0012c:	24420144 	addiu	v0,v0,324
C:\Users\Dani\Desktop\Exercise3_Reordered/boot.S:160
9fc00130:	4082f000 	mtc0	v0,c0_errorepc
C:\Users\Dani\Desktop\Exercise3_Reordered/boot.S:161
9fc00134:	000000c0 	ehb
C:\Users\Dani\Desktop\Exercise3_Reordered/boot.S:165
9fc00138:	42000018 	eret

9fc0013c <all_done>:
C:\Users\Dani\Desktop\Exercise3_Reordered/boot.S:171
9fc0013c:	1000ffff 	b	9fc0013c <all_done>
C:\Users\Dani\Desktop\Exercise3_Reordered/boot.S:172
9fc00140:	00000000 	nop

9fc00144 <_start>:
C:\Users\Dani\Desktop\Exercise3_Reordered/crt0.S:16
9fc00144:	03e08025 	move	s0,ra
C:\Users\Dani\Desktop\Exercise3_Reordered/crt0.S:18
9fc00148:	3c1c8001 	lui	gp,0x8001
9fc0014c:	279c91a0 	addiu	gp,gp,-28256
C:\Users\Dani\Desktop\Exercise3_Reordered/crt0.S:20
9fc00150:	3c1d8004 	lui	sp,0x8004
9fc00154:	27bd0000 	addiu	sp,sp,0
C:\Users\Dani\Desktop\Exercise3_Reordered/crt0.S:22
9fc00158:	3c028000 	lui	v0,0x8000
9fc0015c:	244211a0 	addiu	v0,v0,4512
C:\Users\Dani\Desktop\Exercise3_Reordered/crt0.S:23
9fc00160:	3c038000 	lui	v1,0x8000
9fc00164:	2463166c 	addiu	v1,v1,5740
C:\Users\Dani\Desktop\Exercise3_Reordered/crt0.S:24
9fc00168:	10430005 	beq	v0,v1,9fc00180 <_start+0x3c>
9fc0016c:	00000000 	nop
C:\Users\Dani\Desktop\Exercise3_Reordered/crt0.S:26
9fc00170:	24420004 	addiu	v0,v0,4
C:\Users\Dani\Desktop\Exercise3_Reordered/crt0.S:27
9fc00174:	ac40fffc 	sw	zero,-4(v0)
C:\Users\Dani\Desktop\Exercise3_Reordered/crt0.S:28
9fc00178:	1443fffd 	bne	v0,v1,9fc00170 <_start+0x2c>
9fc0017c:	00000000 	nop
C:\Users\Dani\Desktop\Exercise3_Reordered/crt0.S:31
9fc00180:	24040000 	li	a0,0
C:\Users\Dani\Desktop\Exercise3_Reordered/crt0.S:33
9fc00184:	27bdfff0 	addiu	sp,sp,-16
C:\Users\Dani\Desktop\Exercise3_Reordered/crt0.S:37
9fc00188:	40026000 	mfc0	v0,c0_status
C:\Users\Dani\Desktop\Exercise3_Reordered/crt0.S:38
9fc0018c:	7c02b584 	ins	v0,zero,0x16,0x1
C:\Users\Dani\Desktop\Exercise3_Reordered/crt0.S:39
9fc00190:	40826000 	mtc0	v0,c0_status
C:\Users\Dani\Desktop\Exercise3_Reordered/crt0.S:40
9fc00194:	000000c0 	ehb
C:\Users\Dani\Desktop\Exercise3_Reordered/crt0.S:43
9fc00198:	3c088000 	lui	t0,0x8000
9fc0019c:	25080204 	addiu	t0,t0,516
C:\Users\Dani\Desktop\Exercise3_Reordered/crt0.S:44
9fc001a0:	0100f809 	jalr	t0
9fc001a4:	00000000 	nop
C:\Users\Dani\Desktop\Exercise3_Reordered/crt0.S:47
9fc001a8:	0200f825 	move	ra,s0
C:\Users\Dani\Desktop\Exercise3_Reordered/crt0.S:48
9fc001ac:	03e00008 	jr	ra
9fc001b0:	00000000 	nop
_start():
9fc001b4:	00000000 	nop

Disassembly of section .exception_vector:

80000000 <__exception_entry>:
C:\Users\Dani\Desktop\Exercise3_Reordered/exceptions.S:45
80000000:	3c1b0000 	lui	k1,0x0
80000004:	277b0000 	addiu	k1,k1,0
C:\Users\Dani\Desktop\Exercise3_Reordered/exceptions.S:46
80000008:	1360fffd 	beqz	k1,80000000 <__exception_entry>
8000000c:	00000000 	nop
C:\Users\Dani\Desktop\Exercise3_Reordered/exceptions.S:47
80000010:	03600008 	jr	k1
80000014:	00000000 	nop
	...

80000080 <__xtlb_refill_loop>:
C:\Users\Dani\Desktop\Exercise3_Reordered/exceptions.S:52
80000080:	3c1b0000 	lui	k1,0x0
80000084:	277b0000 	addiu	k1,k1,0
C:\Users\Dani\Desktop\Exercise3_Reordered/exceptions.S:53
80000088:	1360fffd 	beqz	k1,80000080 <__xtlb_refill_loop>
8000008c:	00000000 	nop
C:\Users\Dani\Desktop\Exercise3_Reordered/exceptions.S:54
80000090:	03600008 	jr	k1
80000094:	00000000 	nop
	...

80000100 <__cache_error_loop>:
C:\Users\Dani\Desktop\Exercise3_Reordered/exceptions.S:59
80000100:	3c1b0000 	lui	k1,0x0
80000104:	277b0000 	addiu	k1,k1,0
C:\Users\Dani\Desktop\Exercise3_Reordered/exceptions.S:60
80000108:	1360fffd 	beqz	k1,80000100 <__cache_error_loop>
8000010c:	00000000 	nop
C:\Users\Dani\Desktop\Exercise3_Reordered/exceptions.S:61
80000110:	03600008 	jr	k1
80000114:	00000000 	nop
	...

80000180 <__general_exception_loop>:
C:\Users\Dani\Desktop\Exercise3_Reordered/exceptions.S:66
80000180:	3c1b0000 	lui	k1,0x0
80000184:	277b0000 	addiu	k1,k1,0
C:\Users\Dani\Desktop\Exercise3_Reordered/exceptions.S:67
80000188:	1360fffd 	beqz	k1,80000180 <__general_exception_loop>
8000018c:	00000000 	nop
C:\Users\Dani\Desktop\Exercise3_Reordered/exceptions.S:68
80000190:	03600008 	jr	k1
80000194:	00000000 	nop
	...

Disassembly of section .text:

80000200 <__exception_handle>:
C:\Users\Dani\Desktop\Exercise3_Reordered/dummy.S:59
80000200:	00000000 	nop

80000204 <main>:
main():
C:\Users\Dani\Desktop\Exercise3_Reordered/main.c:39
80000204:	27bdffd8 	addiu	sp,sp,-40
80000208:	afbf0024 	sw	ra,36(sp)
8000020c:	afbe0020 	sw	s8,32(sp)
80000210:	03a0f025 	move	s8,sp
C:\Users\Dani\Desktop\Exercise3_Reordered/main.c:44
80000214:	afc00010 	sw	zero,16(s8)
80000218:	1000000b 	b	80000248 <main+0x44>
8000021c:	00000000 	nop
C:\Users\Dani\Desktop\Exercise3_Reordered/main.c:44 (discriminator 3)
80000220:	3c028000 	lui	v0,0x8000
80000224:	8fc30010 	lw	v1,16(s8)
80000228:	00031880 	sll	v1,v1,0x2
8000022c:	244211bc 	addiu	v0,v0,4540
80000230:	00621021 	addu	v0,v1,v0
80000234:	8fc30010 	lw	v1,16(s8)
80000238:	ac430000 	sw	v1,0(v0)
8000023c:	8fc20010 	lw	v0,16(s8)
80000240:	24420001 	addiu	v0,v0,1
80000244:	afc20010 	sw	v0,16(s8)
C:\Users\Dani\Desktop\Exercise3_Reordered/main.c:44 (discriminator 1)
80000248:	8fc20010 	lw	v0,16(s8)
8000024c:	2842012c 	slti	v0,v0,300
80000250:	1440fff3 	bnez	v0,80000220 <main+0x1c>
80000254:	00000000 	nop
C:\Users\Dani\Desktop\Exercise3_Reordered/main.c:47
80000258:	24020002 	li	v0,2
8000025c:	4082c800 	mtc0	v0,c0_perfcnt
80000260:	000000c0 	ehb
80000264:	24020022 	li	v0,34
80000268:	4082c802 	mtc0	v0,c0_perfcnt,2
8000026c:	000000c0 	ehb
80000270:	4080c801 	mtc0	zero,c0_perfcnt,1
80000274:	000000c0 	ehb
80000278:	4080c803 	mtc0	zero,c0_perfcnt,3
8000027c:	000000c0 	ehb
C:\Users\Dani\Desktop\Exercise3_Reordered/main.c:49
80000280:	3c0e8000 	lui	t6,0x8000
80000284:	25ce11bc 	addiu	t6,t6,4540
80000288:	20090064 	addi	t1,zero,100

8000028c <LOOP>:
8000028c:	8dca0000 	lw	t2,0(t6)
80000290:	8dcb0190 	lw	t3,400(t6)
80000294:	2129ffff 	addi	t1,t1,-1
80000298:	016a5022 	sub	t2,t3,t2
8000029c:	adca0320 	sw	t2,800(t6)
800002a0:	1520fffa 	bnez	t1,8000028c <LOOP>
800002a4:	21ce0004 	addi	t6,t6,4
800002a8:	21290064 	addi	t1,t1,100
C:\Users\Dani\Desktop\Exercise3_Reordered/main.c:67
800002ac:	4002c801 	mfc0	v0,c0_perfcnt,1
800002b0:	0040f825 	move	ra,v0
800002b4:	03e01025 	move	v0,ra
800002b8:	afc20014 	sw	v0,20(s8)
800002bc:	4002c803 	mfc0	v0,c0_perfcnt,3
800002c0:	0040f825 	move	ra,v0
800002c4:	03e01025 	move	v0,ra
800002c8:	afc20018 	sw	v0,24(s8)
800002cc:	4080c800 	mtc0	zero,c0_perfcnt
800002d0:	000000c0 	ehb
800002d4:	4080c802 	mtc0	zero,c0_perfcnt,2
800002d8:	000000c0 	ehb
800002dc:	4080c801 	mtc0	zero,c0_perfcnt,1
800002e0:	000000c0 	ehb
800002e4:	4080c803 	mtc0	zero,c0_perfcnt,3
800002e8:	000000c0 	ehb
C:\Users\Dani\Desktop\Exercise3_Reordered/main.c:69
800002ec:	0c00015b 	jal	8000056c <fdc_init>
800002f0:	00000000 	nop
C:\Users\Dani\Desktop\Exercise3_Reordered/main.c:70
800002f4:	3c028000 	lui	v0,0x8000
800002f8:	244211bc 	addiu	v0,v0,4540
800002fc:	8c450320 	lw	a1,800(v0)
80000300:	3c028000 	lui	v0,0x8000
80000304:	244211bc 	addiu	v0,v0,4540
80000308:	8c4603e8 	lw	a2,1000(v0)
8000030c:	3c028000 	lui	v0,0x8000
80000310:	244211bc 	addiu	v0,v0,4540
80000314:	8c4304ac 	lw	v1,1196(v0)
80000318:	3c028000 	lui	v0,0x8000
8000031c:	24441160 	addiu	a0,v0,4448
80000320:	00603825 	move	a3,v1
80000324:	0c000430 	jal	800010c0 <fdc_printf>
80000328:	00000000 	nop
C:\Users\Dani\Desktop\Exercise3_Reordered/main.c:75
8000032c:	3c02bf80 	lui	v0,0xbf80
80000330:	34420004 	ori	v0,v0,0x4
80000334:	8c420000 	lw	v0,0(v0)
80000338:	10400006 	beqz	v0,80000354 <LOOP+0xc8>
8000033c:	00000000 	nop
80000340:	24030001 	li	v1,1
80000344:	10430009 	beq	v0,v1,8000036c <LOOP+0xe0>
80000348:	00000000 	nop
8000034c:	1000000d 	b	80000384 <LOOP+0xf8>
80000350:	00000000 	nop
C:\Users\Dani\Desktop\Exercise3_Reordered/main.c:77
80000354:	8fc20014 	lw	v0,20(s8)
80000358:	00402025 	move	a0,v0
8000035c:	0c0000e6 	jal	80000398 <writeValTo7Segs>
80000360:	00000000 	nop
C:\Users\Dani\Desktop\Exercise3_Reordered/main.c:78
80000364:	1000000a 	b	80000390 <LOOP+0x104>
80000368:	00000000 	nop
C:\Users\Dani\Desktop\Exercise3_Reordered/main.c:80
8000036c:	8fc20018 	lw	v0,24(s8)
80000370:	00402025 	move	a0,v0
80000374:	0c0000e6 	jal	80000398 <writeValTo7Segs>
80000378:	00000000 	nop
C:\Users\Dani\Desktop\Exercise3_Reordered/main.c:81
8000037c:	10000004 	b	80000390 <LOOP+0x104>
80000380:	00000000 	nop
C:\Users\Dani\Desktop\Exercise3_Reordered/main.c:83
80000384:	00002025 	move	a0,zero
80000388:	0c0000e6 	jal	80000398 <writeValTo7Segs>
8000038c:	00000000 	nop
C:\Users\Dani\Desktop\Exercise3_Reordered/main.c:85
80000390:	1000ffe6 	b	8000032c <LOOP+0xa0>
80000394:	00000000 	nop

80000398 <writeValTo7Segs>:
writeValTo7Segs():
C:\Users\Dani\Desktop\Exercise3_Reordered/main.c:92
80000398:	27bdffe8 	addiu	sp,sp,-24
8000039c:	afbe0014 	sw	s8,20(sp)
800003a0:	03a0f025 	move	s8,sp
800003a4:	afc40018 	sw	a0,24(s8)
C:\Users\Dani\Desktop\Exercise3_Reordered/main.c:94
800003a8:	afc00004 	sw	zero,4(s8)
C:\Users\Dani\Desktop\Exercise3_Reordered/main.c:95
800003ac:	afc00008 	sw	zero,8(s8)
C:\Users\Dani\Desktop\Exercise3_Reordered/main.c:98
800003b0:	afc00004 	sw	zero,4(s8)
800003b4:	10000025 	b	8000044c <writeValTo7Segs+0xb4>
800003b8:	00000000 	nop
C:\Users\Dani\Desktop\Exercise3_Reordered/main.c:99 (discriminator 4)
800003bc:	8fc30018 	lw	v1,24(s8)
800003c0:	3c02cccc 	lui	v0,0xcccc
800003c4:	3442cccd 	ori	v0,v0,0xcccd
800003c8:	00620019 	multu	v1,v0
800003cc:	00001010 	mfhi	v0
800003d0:	000210c2 	srl	v0,v0,0x3
800003d4:	00021040 	sll	v0,v0,0x1
800003d8:	00022080 	sll	a0,v0,0x2
800003dc:	00441021 	addu	v0,v0,a0
800003e0:	00621023 	subu	v0,v1,v0
800003e4:	afc20000 	sw	v0,0(s8)
C:\Users\Dani\Desktop\Exercise3_Reordered/main.c:100 (discriminator 4)
800003e8:	8fc30000 	lw	v1,0(s8)
800003ec:	8fc20004 	lw	v0,4(s8)
800003f0:	00021080 	sll	v0,v0,0x2
800003f4:	00431004 	sllv	v0,v1,v0
800003f8:	00401825 	move	v1,v0
800003fc:	8fc20008 	lw	v0,8(s8)
80000400:	00621025 	or	v0,v1,v0
80000404:	afc20008 	sw	v0,8(s8)
C:\Users\Dani\Desktop\Exercise3_Reordered/main.c:101 (discriminator 4)
80000408:	8fc30018 	lw	v1,24(s8)
8000040c:	3c02cccc 	lui	v0,0xcccc
80000410:	3442cccd 	ori	v0,v0,0xcccd
80000414:	00620019 	multu	v1,v0
80000418:	00001010 	mfhi	v0
8000041c:	000210c2 	srl	v0,v0,0x3
80000420:	afc20018 	sw	v0,24(s8)
C:\Users\Dani\Desktop\Exercise3_Reordered/main.c:102 (discriminator 4)
80000424:	8fc20004 	lw	v0,4(s8)
80000428:	24030001 	li	v1,1
8000042c:	00431004 	sllv	v0,v1,v0
80000430:	00401825 	move	v1,v0
80000434:	8fc2000c 	lw	v0,12(s8)
80000438:	00621025 	or	v0,v1,v0
8000043c:	afc2000c 	sw	v0,12(s8)
C:\Users\Dani\Desktop\Exercise3_Reordered/main.c:98 (discriminator 4)
80000440:	8fc20004 	lw	v0,4(s8)
80000444:	24420001 	addiu	v0,v0,1
80000448:	afc20004 	sw	v0,4(s8)
C:\Users\Dani\Desktop\Exercise3_Reordered/main.c:98 (discriminator 1)
8000044c:	8fc20018 	lw	v0,24(s8)
80000450:	10400005 	beqz	v0,80000468 <writeValTo7Segs+0xd0>
80000454:	00000000 	nop
C:\Users\Dani\Desktop\Exercise3_Reordered/main.c:98 (discriminator 3)
80000458:	8fc20004 	lw	v0,4(s8)
8000045c:	28420008 	slti	v0,v0,8
80000460:	1440ffd6 	bnez	v0,800003bc <writeValTo7Segs+0x24>
80000464:	00000000 	nop
C:\Users\Dani\Desktop\Exercise3_Reordered/main.c:105
80000468:	3c02bf80 	lui	v0,0xbf80
8000046c:	34420010 	ori	v0,v0,0x10
80000470:	8fc30008 	lw	v1,8(s8)
80000474:	ac430000 	sw	v1,0(v0)
C:\Users\Dani\Desktop\Exercise3_Reordered/main.c:106
80000478:	3c02bf80 	lui	v0,0xbf80
8000047c:	3442000c 	ori	v0,v0,0xc
80000480:	8fc3000c 	lw	v1,12(s8)
80000484:	00031827 	nor	v1,zero,v1
80000488:	ac430000 	sw	v1,0(v0)
C:\Users\Dani\Desktop\Exercise3_Reordered/main.c:108
8000048c:	00000000 	nop
C:\Users\Dani\Desktop\Exercise3_Reordered/main.c:109
80000490:	03c0e825 	move	sp,s8
80000494:	8fbe0014 	lw	s8,20(sp)
80000498:	27bd0018 	addiu	sp,sp,24
8000049c:	03e00008 	jr	ra
800004a0:	00000000 	nop

800004a4 <_mips_handle_exception>:
_mips_handle_exception():
C:\Users\Dani\Desktop\Exercise3_Reordered/main.c:113
800004a4:	27bdfff8 	addiu	sp,sp,-8
800004a8:	afbe0004 	sw	s8,4(sp)
800004ac:	03a0f025 	move	s8,sp
800004b0:	afc40008 	sw	a0,8(s8)
800004b4:	afc5000c 	sw	a1,12(s8)
C:\Users\Dani\Desktop\Exercise3_Reordered/main.c:114
800004b8:	3c02bf80 	lui	v0,0xbf80
800004bc:	34038001 	li	v1,0x8001
800004c0:	ac430000 	sw	v1,0(v0)
C:\Users\Dani\Desktop\Exercise3_Reordered/main.c:115 (discriminator 1)
800004c4:	1000ffff 	b	800004c4 <_mips_handle_exception+0x20>
800004c8:	00000000 	nop

800004cc <ReadConfig3>:
ReadConfig3():
800004cc:	03e00008 	jr	ra
800004d0:	40028003 	mfc0	v0,c0_config3

800004d4 <WriteCDMMBase>:
WriteCDMMBase():
800004d4:	03e00008 	jr	ra
800004d8:	40847802 	mtc0	a0,$15,2

800004dc <ReadCause>:
ReadCause():
800004dc:	03e00008 	jr	ra
800004e0:	40026800 	mfc0	v0,c0_cause

800004e4 <ReadCount>:
ReadCount():
800004e4:	03e00008 	jr	ra
800004e8:	40024801 	mfc0	v0,$9,1

800004ec <fdc_hw_find_base_addr>:
fdc_hw_find_base_addr():
800004ec:	8f828010 	lw	v0,-32752(gp)
800004f0:	00021ac2 	srl	v1,v0,0xb
800004f4:	00031bc0 	sll	v1,v1,0xf
800004f8:	304601ff 	andi	a2,v0,0x1ff
800004fc:	00063180 	sll	a2,a2,0x6
80000500:	30420200 	andi	v0,v0,0x200
80000504:	24650040 	addiu	a1,v1,64
80000508:	00663021 	addu	a2,v1,a2
8000050c:	00a2180b 	movn	v1,a1,v0
80000510:	0066102b 	sltu	v0,v1,a2
80000514:	10400010 	beqz	v0,80000558 <fdc_hw_find_base_addr+0x6c>
80000518:	240500fd 	li	a1,253
8000051c:	8c620000 	lw	v0,0(v1)
80000520:	00023e02 	srl	a3,v0,0x18
80000524:	10e5000e 	beq	a3,a1,80000560 <fdc_hw_find_base_addr+0x74>
80000528:	240700fd 	li	a3,253
8000052c:	10000005 	b	80000544 <fdc_hw_find_base_addr+0x58>
80000530:	7c422c00 	ext	v0,v0,0x10,0x6
80000534:	00022e02 	srl	a1,v0,0x18
80000538:	50a7000a 	beql	a1,a3,80000564 <fdc_hw_find_base_addr+0x78>
8000053c:	ac830000 	sw	v1,0(a0)
80000540:	7c422c00 	ext	v0,v0,0x10,0x6
80000544:	00021180 	sll	v0,v0,0x6
80000548:	00621821 	addu	v1,v1,v0
8000054c:	0066102b 	sltu	v0,v1,a2
80000550:	5440fff8 	bnezl	v0,80000534 <fdc_hw_find_base_addr+0x48>
80000554:	8c620000 	lw	v0,0(v1)
80000558:	03e00008 	jr	ra
8000055c:	2402fff7 	li	v0,-9
80000560:	ac830000 	sw	v1,0(a0)
80000564:	03e00008 	jr	ra
80000568:	00001025 	move	v0,zero

8000056c <fdc_init>:
fdc_init():
8000056c:	40028003 	mfc0	v0,c0_config3
80000570:	30420008 	andi	v0,v0,0x8
80000574:	1040002d 	beqz	v0,8000062c <fdc_init+0xc0>
80000578:	8f838010 	lw	v1,-32752(gp)
8000057c:	40027802 	mfc0	v0,$15,2
80000580:	30430400 	andi	v1,v0,0x400
80000584:	14600007 	bnez	v1,800005a4 <fdc_init+0x38>
80000588:	0003182b 	sltu	v1,zero,v1
8000058c:	af838014 	sw	v1,-32748(gp)
80000590:	34430400 	ori	v1,v0,0x400
80000594:	40837802 	mtc0	v1,$15,2
80000598:	3c030bfc 	lui	v1,0xbfc
8000059c:	24631400 	addiu	v1,v1,5120
800005a0:	00431025 	or	v0,v0,v1
800005a4:	af828010 	sw	v0,-32752(gp)
800005a8:	00401825 	move	v1,v0
800005ac:	00001025 	move	v0,zero
800005b0:	000322c2 	srl	a0,v1,0xb
800005b4:	000423c0 	sll	a0,a0,0xf
800005b8:	306601ff 	andi	a2,v1,0x1ff
800005bc:	00063180 	sll	a2,a2,0x6
800005c0:	30630200 	andi	v1,v1,0x200
800005c4:	24850040 	addiu	a1,a0,64
800005c8:	00863021 	addu	a2,a0,a2
800005cc:	00a3200b 	movn	a0,a1,v1
800005d0:	0086182b 	sltu	v1,a0,a2
800005d4:	10600010 	beqz	v1,80000618 <fdc_init+0xac>
800005d8:	240500fd 	li	a1,253
800005dc:	8c830000 	lw	v1,0(a0)
800005e0:	00033e02 	srl	a3,v1,0x18
800005e4:	10e5000e 	beq	a3,a1,80000620 <fdc_init+0xb4>
800005e8:	240700fd 	li	a3,253
800005ec:	10000005 	b	80000604 <fdc_init+0x98>
800005f0:	7c632c00 	ext	v1,v1,0x10,0x6
800005f4:	00032e02 	srl	a1,v1,0x18
800005f8:	50a7000a 	beql	a1,a3,80000624 <fdc_init+0xb8>
800005fc:	af848018 	sw	a0,-32744(gp)
80000600:	7c632c00 	ext	v1,v1,0x10,0x6
80000604:	00031980 	sll	v1,v1,0x6
80000608:	00832021 	addu	a0,a0,v1
8000060c:	0086182b 	sltu	v1,a0,a2
80000610:	5460fff8 	bnezl	v1,800005f4 <fdc_init+0x88>
80000614:	8c830000 	lw	v1,0(a0)
80000618:	03e00008 	jr	ra
8000061c:	af80800c 	sw	zero,-32756(gp)
80000620:	af848018 	sw	a0,-32744(gp)
80000624:	03e00008 	jr	ra
80000628:	af80800c 	sw	zero,-32756(gp)
8000062c:	1000ffe0 	b	800005b0 <fdc_init+0x44>
80000630:	2402fffa 	li	v0,-6

80000634 <fdc_putchar>:
fdc_putchar():
80000634:	8f838008 	lw	v1,-32760(gp)
80000638:	24020001 	li	v0,1
8000063c:	27bdfff8 	addiu	sp,sp,-8
80000640:	1062002f 	beq	v1,v0,80000700 <fdc_putchar+0xcc>
80000644:	8f858018 	lw	a1,-32744(gp)
80000648:	8f828004 	lw	v0,-32764(gp)
8000064c:	00041e00 	sll	v1,a0,0x18
80000650:	00021202 	srl	v0,v0,0x8
80000654:	00621025 	or	v0,v1,v0
80000658:	af828004 	sw	v0,-32764(gp)
8000065c:	1480000e 	bnez	a0,80000698 <fdc_putchar+0x64>
80000660:	8f82800c 	lw	v0,-32756(gp)
80000664:	8f83800c 	lw	v1,-32756(gp)
80000668:	10600025 	beqz	v1,80000700 <fdc_putchar+0xcc>
8000066c:	28620003 	slti	v0,v1,3
80000670:	1040000d 	beqz	v0,800006a8 <fdc_putchar+0x74>
80000674:	24040003 	li	a0,3
80000678:	8f828004 	lw	v0,-32764(gp)
8000067c:	24630001 	addiu	v1,v1,1
80000680:	00021202 	srl	v0,v0,0x8
80000684:	af828004 	sw	v0,-32764(gp)
80000688:	1464fffb 	bne	v1,a0,80000678 <fdc_putchar+0x44>
8000068c:	00000000 	nop
80000690:	10000005 	b	800006a8 <fdc_putchar+0x74>
80000694:	af83800c 	sw	v1,-32756(gp)
80000698:	24420001 	addiu	v0,v0,1
8000069c:	28430004 	slti	v1,v0,4
800006a0:	14600017 	bnez	v1,80000700 <fdc_putchar+0xcc>
800006a4:	af82800c 	sw	v0,-32756(gp)
800006a8:	3c03000f 	lui	v1,0xf
800006ac:	afa00000 	sw	zero,0(sp)
800006b0:	1000000b 	b	800006e0 <fdc_putchar+0xac>
800006b4:	24634240 	addiu	v1,v1,16960
800006b8:	8fa20000 	lw	v0,0(sp)
800006bc:	24420001 	addiu	v0,v0,1
800006c0:	afa20000 	sw	v0,0(sp)
800006c4:	8f828000 	lw	v0,-32768(gp)
800006c8:	24420001 	addiu	v0,v0,1
800006cc:	af828000 	sw	v0,-32768(gp)
800006d0:	8fa20000 	lw	v0,0(sp)
800006d4:	0043102b 	sltu	v0,v0,v1
800006d8:	1040000b 	beqz	v0,80000708 <fdc_putchar+0xd4>
800006dc:	24020001 	li	v0,1
800006e0:	8ca20010 	lw	v0,16(a1)
800006e4:	30420001 	andi	v0,v0,0x1
800006e8:	1440fff3 	bnez	v0,800006b8 <fdc_putchar+0x84>
800006ec:	00000000 	nop
800006f0:	8f828004 	lw	v0,-32764(gp)
800006f4:	af80800c 	sw	zero,-32756(gp)
800006f8:	aca20020 	sw	v0,32(a1)
800006fc:	af808004 	sw	zero,-32764(gp)
80000700:	03e00008 	jr	ra
80000704:	27bd0008 	addiu	sp,sp,8
80000708:	af828008 	sw	v0,-32760(gp)
8000070c:	03e00008 	jr	ra
80000710:	27bd0008 	addiu	sp,sp,8

80000714 <fdc_printchar.constprop.0>:
fdc_printchar.constprop.0():
80000714:	0800018d 	j	80000634 <fdc_putchar>
80000718:	00002025 	move	a0,zero

8000071c <fdc_printchar>:
fdc_printchar():
8000071c:	10800007 	beqz	a0,8000073c <fdc_printchar+0x20>
80000720:	00000000 	nop
80000724:	8c820000 	lw	v0,0(a0)
80000728:	a0450000 	sb	a1,0(v0)
8000072c:	8c820000 	lw	v0,0(a0)
80000730:	24420001 	addiu	v0,v0,1
80000734:	03e00008 	jr	ra
80000738:	ac820000 	sw	v0,0(a0)
8000073c:	0800018d 	j	80000634 <fdc_putchar>
80000740:	00a02025 	move	a0,a1

80000744 <fdc_prints>:
fdc_prints():
80000744:	27bdffd8 	addiu	sp,sp,-40
80000748:	afb3001c 	sw	s3,28(sp)
8000074c:	afb20018 	sw	s2,24(sp)
80000750:	afb00010 	sw	s0,16(sp)
80000754:	afbf0024 	sw	ra,36(sp)
80000758:	afb40020 	sw	s4,32(sp)
8000075c:	afb10014 	sw	s1,20(sp)
80000760:	00c09825 	move	s3,a2
80000764:	00809025 	move	s2,a0
80000768:	18c00045 	blez	a2,80000880 <fdc_prints+0x13c>
8000076c:	00a08025 	move	s0,a1
80000770:	90a30000 	lbu	v1,0(a1)
80000774:	10600038 	beqz	v1,80000858 <fdc_prints+0x114>
80000778:	00a01025 	move	v0,a1
8000077c:	00002025 	move	a0,zero
80000780:	24420001 	addiu	v0,v0,1
80000784:	90450000 	lbu	a1,0(v0)
80000788:	14a0fffd 	bnez	a1,80000780 <fdc_prints+0x3c>
8000078c:	24840001 	addiu	a0,a0,1
80000790:	0093102a 	slt	v0,a0,s3
80000794:	14400031 	bnez	v0,8000085c <fdc_prints+0x118>
80000798:	00008825 	move	s1,zero
8000079c:	30e20002 	andi	v0,a3,0x2
800007a0:	24040030 	li	a0,48
800007a4:	24140020 	li	s4,32
800007a8:	30e70001 	andi	a3,a3,0x1
800007ac:	10e0001d 	beqz	a3,80000824 <fdc_prints+0xe0>
800007b0:	0082a00b 	movn	s4,a0,v0
800007b4:	02209825 	move	s3,s1
800007b8:	00602825 	move	a1,v1
800007bc:	10600007 	beqz	v1,800007dc <fdc_prints+0x98>
800007c0:	00008825 	move	s1,zero
800007c4:	02402025 	move	a0,s2
800007c8:	0c0001c7 	jal	8000071c <fdc_printchar>
800007cc:	26100001 	addiu	s0,s0,1
800007d0:	92050000 	lbu	a1,0(s0)
800007d4:	14a0fffb 	bnez	a1,800007c4 <fdc_prints+0x80>
800007d8:	26310001 	addiu	s1,s1,1
800007dc:	1a600008 	blez	s3,80000800 <fdc_prints+0xbc>
800007e0:	02608025 	move	s0,s3
800007e4:	2610ffff 	addiu	s0,s0,-1
800007e8:	02402025 	move	a0,s2
800007ec:	0c0001c7 	jal	8000071c <fdc_printchar>
800007f0:	02802825 	move	a1,s4
800007f4:	1600fffc 	bnez	s0,800007e8 <fdc_prints+0xa4>
800007f8:	2610ffff 	addiu	s0,s0,-1
800007fc:	02338821 	addu	s1,s1,s3
80000800:	8fbf0024 	lw	ra,36(sp)
80000804:	02201025 	move	v0,s1
80000808:	8fb40020 	lw	s4,32(sp)
8000080c:	8fb3001c 	lw	s3,28(sp)
80000810:	8fb20018 	lw	s2,24(sp)
80000814:	8fb10014 	lw	s1,20(sp)
80000818:	8fb00010 	lw	s0,16(sp)
8000081c:	03e00008 	jr	ra
80000820:	27bd0028 	addiu	sp,sp,40
80000824:	1a20001b 	blez	s1,80000894 <fdc_prints+0x150>
80000828:	02209825 	move	s3,s1
8000082c:	2673ffff 	addiu	s3,s3,-1
80000830:	02402025 	move	a0,s2
80000834:	0c0001c7 	jal	8000071c <fdc_printchar>
80000838:	02802825 	move	a1,s4
8000083c:	5660fffc 	bnezl	s3,80000830 <fdc_prints+0xec>
80000840:	2673ffff 	addiu	s3,s3,-1
80000844:	92030000 	lbu	v1,0(s0)
80000848:	1460ffde 	bnez	v1,800007c4 <fdc_prints+0x80>
8000084c:	00602825 	move	a1,v1
80000850:	1000ffec 	b	80000804 <fdc_prints+0xc0>
80000854:	8fbf0024 	lw	ra,36(sp)
80000858:	00002025 	move	a0,zero
8000085c:	30e20002 	andi	v0,a3,0x2
80000860:	02648823 	subu	s1,s3,a0
80000864:	24140020 	li	s4,32
80000868:	24040030 	li	a0,48
8000086c:	30e70001 	andi	a3,a3,0x1
80000870:	14e0ffd0 	bnez	a3,800007b4 <fdc_prints+0x70>
80000874:	0082a00b 	movn	s4,a0,v0
80000878:	1000ffea 	b	80000824 <fdc_prints+0xe0>
8000087c:	00000000 	nop
80000880:	30e70001 	andi	a3,a3,0x1
80000884:	54e00005 	bnezl	a3,8000089c <fdc_prints+0x158>
80000888:	90a50000 	lbu	a1,0(a1)
8000088c:	92030000 	lbu	v1,0(s0)
80000890:	24140020 	li	s4,32
80000894:	1000ffec 	b	80000848 <fdc_prints+0x104>
80000898:	00008825 	move	s1,zero
8000089c:	24140020 	li	s4,32
800008a0:	14a0ffc8 	bnez	a1,800007c4 <fdc_prints+0x80>
800008a4:	00008825 	move	s1,zero
800008a8:	1000ffd6 	b	80000804 <fdc_prints+0xc0>
800008ac:	8fbf0024 	lw	ra,36(sp)

800008b0 <fdc_printi>:
fdc_printi():
800008b0:	27bdffb0 	addiu	sp,sp,-80
800008b4:	afb70048 	sw	s7,72(sp)
800008b8:	afb30038 	sw	s3,56(sp)
800008bc:	afb10030 	sw	s1,48(sp)
800008c0:	afbf004c 	sw	ra,76(sp)
800008c4:	afb60044 	sw	s6,68(sp)
800008c8:	afb50040 	sw	s5,64(sp)
800008cc:	afb4003c 	sw	s4,60(sp)
800008d0:	afb20034 	sw	s2,52(sp)
800008d4:	afb0002c 	sw	s0,44(sp)
800008d8:	00808825 	move	s1,a0
800008dc:	8fb70060 	lw	s7,96(sp)
800008e0:	10a0007c 	beqz	a1,80000ad4 <fdc_printi+0x224>
800008e4:	8fb30064 	lw	s3,100(sp)
800008e8:	14e00050 	bnez	a3,80000a2c <fdc_printi+0x17c>
800008ec:	00a01025 	move	v0,a1
800008f0:	a3a00027 	sb	zero,39(sp)
800008f4:	10a00066 	beqz	a1,80000a90 <fdc_printi+0x1e0>
800008f8:	00003825 	move	a3,zero
800008fc:	8fa40068 	lw	a0,104(sp)
80000900:	27b00027 	addiu	s0,sp,39
80000904:	2484ffc6 	addiu	a0,a0,-58
80000908:	0046001b 	divu	zero,v0,a2
8000090c:	00c001f4 	teq	a2,zero,0x7
80000910:	2610ffff 	addiu	s0,s0,-1
80000914:	00002810 	mfhi	a1
80000918:	28a2000a 	slti	v0,a1,10
8000091c:	00851821 	addu	v1,a0,a1
80000920:	0062280a 	movz	a1,v1,v0
80000924:	24a50030 	addiu	a1,a1,48
80000928:	30a500ff 	andi	a1,a1,0xff
8000092c:	00001012 	mflo	v0
80000930:	1440fff5 	bnez	v0,80000908 <fdc_printi+0x58>
80000934:	a2050000 	sb	a1,0(s0)
80000938:	14e00045 	bnez	a3,80000a50 <fdc_printi+0x1a0>
8000093c:	00a09025 	move	s2,a1
80000940:	0000b025 	move	s6,zero
80000944:	5ae0005a 	blezl	s7,80000ab0 <fdc_printi+0x200>
80000948:	32730001 	andi	s3,s3,0x1
8000094c:	52400055 	beqzl	s2,80000aa4 <fdc_printi+0x1f4>
80000950:	00001825 	move	v1,zero
80000954:	32650002 	andi	a1,s3,0x2
80000958:	02001025 	move	v0,s0
8000095c:	00001825 	move	v1,zero
80000960:	24420001 	addiu	v0,v0,1
80000964:	90440000 	lbu	a0,0(v0)
80000968:	1480fffd 	bnez	a0,80000960 <fdc_printi+0xb0>
8000096c:	24630001 	addiu	v1,v1,1
80000970:	0077102a 	slt	v0,v1,s7
80000974:	1440004c 	bnez	v0,80000aa8 <fdc_printi+0x1f8>
80000978:	0000a825 	move	s5,zero
8000097c:	24020020 	li	v0,32
80000980:	24140030 	li	s4,48
80000984:	32730001 	andi	s3,s3,0x1
80000988:	1660003d 	bnez	s3,80000a80 <fdc_printi+0x1d0>
8000098c:	0045a00a 	movz	s4,v0,a1
80000990:	1aa000a4 	blez	s5,80000c24 <fdc_printi+0x374>
80000994:	02a0b825 	move	s7,s5
80000998:	26f7ffff 	addiu	s7,s7,-1
8000099c:	02202025 	move	a0,s1
800009a0:	0c0001c7 	jal	8000071c <fdc_printchar>
800009a4:	02802825 	move	a1,s4
800009a8:	56e0fffc 	bnezl	s7,8000099c <fdc_printi+0xec>
800009ac:	26f7ffff 	addiu	s7,s7,-1
800009b0:	02a09825 	move	s3,s5
800009b4:	12400011 	beqz	s2,800009fc <fdc_printi+0x14c>
800009b8:	02e0a825 	move	s5,s7
800009bc:	02402825 	move	a1,s2
800009c0:	02202025 	move	a0,s1
800009c4:	0c0001c7 	jal	8000071c <fdc_printchar>
800009c8:	26100001 	addiu	s0,s0,1
800009cc:	92050000 	lbu	a1,0(s0)
800009d0:	14a0fffb 	bnez	a1,800009c0 <fdc_printi+0x110>
800009d4:	26730001 	addiu	s3,s3,1
800009d8:	1aa00008 	blez	s5,800009fc <fdc_printi+0x14c>
800009dc:	02a08025 	move	s0,s5
800009e0:	2610ffff 	addiu	s0,s0,-1
800009e4:	02202025 	move	a0,s1
800009e8:	0c0001c7 	jal	8000071c <fdc_printchar>
800009ec:	02802825 	move	a1,s4
800009f0:	1600fffc 	bnez	s0,800009e4 <fdc_printi+0x134>
800009f4:	2610ffff 	addiu	s0,s0,-1
800009f8:	02759821 	addu	s3,s3,s5
800009fc:	02d31021 	addu	v0,s6,s3
80000a00:	8fbf004c 	lw	ra,76(sp)
80000a04:	8fb70048 	lw	s7,72(sp)
80000a08:	8fb60044 	lw	s6,68(sp)
80000a0c:	8fb50040 	lw	s5,64(sp)
80000a10:	8fb4003c 	lw	s4,60(sp)
80000a14:	8fb30038 	lw	s3,56(sp)
80000a18:	8fb20034 	lw	s2,52(sp)
80000a1c:	8fb10030 	lw	s1,48(sp)
80000a20:	8fb0002c 	lw	s0,44(sp)
80000a24:	03e00008 	jr	ra
80000a28:	27bd0050 	addiu	sp,sp,80
80000a2c:	2403000a 	li	v1,10
80000a30:	14c3ffb0 	bne	a2,v1,800008f4 <fdc_printi+0x44>
80000a34:	a3a00027 	sb	zero,39(sp)
80000a38:	04a1ffae 	bgez	a1,800008f4 <fdc_printi+0x44>
80000a3c:	00000000 	nop
80000a40:	00051023 	negu	v0,a1
80000a44:	1440ffad 	bnez	v0,800008fc <fdc_printi+0x4c>
80000a48:	24070001 	li	a3,1
80000a4c:	27b00027 	addiu	s0,sp,39
80000a50:	16e0005d 	bnez	s7,80000bc8 <fdc_printi+0x318>
80000a54:	32650002 	andi	a1,s3,0x2
80000a58:	2403002d 	li	v1,45
80000a5c:	2602ffff 	addiu	v0,s0,-1
80000a60:	a203ffff 	sb	v1,-1(s0)
80000a64:	2412002d 	li	s2,45
80000a68:	0000b025 	move	s6,zero
80000a6c:	24140020 	li	s4,32
80000a70:	32730001 	andi	s3,s3,0x1
80000a74:	1260006b 	beqz	s3,80000c24 <fdc_printi+0x374>
80000a78:	00408025 	move	s0,v0
80000a7c:	02e0a825 	move	s5,s7
80000a80:	1640ffce 	bnez	s2,800009bc <fdc_printi+0x10c>
80000a84:	00009825 	move	s3,zero
80000a88:	1000ffd3 	b	800009d8 <fdc_printi+0x128>
80000a8c:	00000000 	nop
80000a90:	00009025 	move	s2,zero
80000a94:	0000b025 	move	s6,zero
80000a98:	1ae0006f 	blez	s7,80000c58 <fdc_printi+0x3a8>
80000a9c:	27b00027 	addiu	s0,sp,39
80000aa0:	00001825 	move	v1,zero
80000aa4:	32650002 	andi	a1,s3,0x2
80000aa8:	1000ffb4 	b	8000097c <fdc_printi+0xcc>
80000aac:	02e3a823 	subu	s5,s7,v1
80000ab0:	5660004e 	bnezl	s3,80000bec <fdc_printi+0x33c>
80000ab4:	02e0a825 	move	s5,s7
80000ab8:	0000a825 	move	s5,zero
80000abc:	02a09825 	move	s3,s5
80000ac0:	24140020 	li	s4,32
80000ac4:	1640ffbd 	bnez	s2,800009bc <fdc_printi+0x10c>
80000ac8:	02e0a825 	move	s5,s7
80000acc:	1000ffcc 	b	80000a00 <fdc_printi+0x150>
80000ad0:	02d31021 	addu	v0,s6,s3
80000ad4:	24020030 	li	v0,48
80000ad8:	a3a20010 	sb	v0,16(sp)
80000adc:	1ae00048 	blez	s7,80000c00 <fdc_printi+0x350>
80000ae0:	a3a00011 	sb	zero,17(sp)
80000ae4:	27b00010 	addiu	s0,sp,16
80000ae8:	02001025 	move	v0,s0
80000aec:	00001825 	move	v1,zero
80000af0:	24420001 	addiu	v0,v0,1
80000af4:	90440000 	lbu	a0,0(v0)
80000af8:	1480fffd 	bnez	a0,80000af0 <fdc_printi+0x240>
80000afc:	24630001 	addiu	v1,v1,1
80000b00:	0077a82a 	slt	s5,v1,s7
80000b04:	02e31823 	subu	v1,s7,v1
80000b08:	0015180a 	movz	v1,zero,s5
80000b0c:	32740002 	andi	s4,s3,0x2
80000b10:	0060a825 	move	s5,v1
80000b14:	24020020 	li	v0,32
80000b18:	24030030 	li	v1,48
80000b1c:	0074100b 	movn	v0,v1,s4
80000b20:	32730001 	andi	s3,s3,0x1
80000b24:	0040a025 	move	s4,v0
80000b28:	1660000b 	bnez	s3,80000b58 <fdc_printi+0x2a8>
80000b2c:	00009025 	move	s2,zero
80000b30:	1aa0004c 	blez	s5,80000c64 <fdc_printi+0x3b4>
80000b34:	02a0b825 	move	s7,s5
80000b38:	26f7ffff 	addiu	s7,s7,-1
80000b3c:	02202025 	move	a0,s1
80000b40:	0c0001c7 	jal	8000071c <fdc_printchar>
80000b44:	02802825 	move	a1,s4
80000b48:	56e0fffc 	bnezl	s7,80000b3c <fdc_printi+0x28c>
80000b4c:	26f7ffff 	addiu	s7,s7,-1
80000b50:	02a09025 	move	s2,s5
80000b54:	02e0a825 	move	s5,s7
80000b58:	24050030 	li	a1,48
80000b5c:	02202025 	move	a0,s1
80000b60:	0c0001c7 	jal	8000071c <fdc_printchar>
80000b64:	26100001 	addiu	s0,s0,1
80000b68:	92050000 	lbu	a1,0(s0)
80000b6c:	14a0fffb 	bnez	a1,80000b5c <fdc_printi+0x2ac>
80000b70:	26520001 	addiu	s2,s2,1
80000b74:	1aa0ffa2 	blez	s5,80000a00 <fdc_printi+0x150>
80000b78:	02401025 	move	v0,s2
80000b7c:	02a08025 	move	s0,s5
80000b80:	2610ffff 	addiu	s0,s0,-1
80000b84:	02202025 	move	a0,s1
80000b88:	0c0001c7 	jal	8000071c <fdc_printchar>
80000b8c:	02802825 	move	a1,s4
80000b90:	1600fffc 	bnez	s0,80000b84 <fdc_printi+0x2d4>
80000b94:	2610ffff 	addiu	s0,s0,-1
80000b98:	8fbf004c 	lw	ra,76(sp)
80000b9c:	02551021 	addu	v0,s2,s5
80000ba0:	8fb70048 	lw	s7,72(sp)
80000ba4:	8fb60044 	lw	s6,68(sp)
80000ba8:	8fb50040 	lw	s5,64(sp)
80000bac:	8fb4003c 	lw	s4,60(sp)
80000bb0:	8fb30038 	lw	s3,56(sp)
80000bb4:	8fb20034 	lw	s2,52(sp)
80000bb8:	8fb10030 	lw	s1,48(sp)
80000bbc:	8fb0002c 	lw	s0,44(sp)
80000bc0:	03e00008 	jr	ra
80000bc4:	27bd0050 	addiu	sp,sp,80
80000bc8:	14a00018 	bnez	a1,80000c2c <fdc_printi+0x37c>
80000bcc:	2403002d 	li	v1,45
80000bd0:	2602ffff 	addiu	v0,s0,-1
80000bd4:	1ae0ffa3 	blez	s7,80000a64 <fdc_printi+0x1b4>
80000bd8:	a203ffff 	sb	v1,-1(s0)
80000bdc:	00408025 	move	s0,v0
80000be0:	2412002d 	li	s2,45
80000be4:	1000ff5c 	b	80000958 <fdc_printi+0xa8>
80000be8:	0000b025 	move	s6,zero
80000bec:	24140020 	li	s4,32
80000bf0:	1640ff72 	bnez	s2,800009bc <fdc_printi+0x10c>
80000bf4:	00009825 	move	s3,zero
80000bf8:	1000ff81 	b	80000a00 <fdc_printi+0x150>
80000bfc:	02d31021 	addu	v0,s6,s3
80000c00:	32730001 	andi	s3,s3,0x1
80000c04:	56600010 	bnezl	s3,80000c48 <fdc_printi+0x398>
80000c08:	02e0a825 	move	s5,s7
80000c0c:	0000a825 	move	s5,zero
80000c10:	02a09025 	move	s2,s5
80000c14:	24140020 	li	s4,32
80000c18:	27b00010 	addiu	s0,sp,16
80000c1c:	1000ffce 	b	80000b58 <fdc_printi+0x2a8>
80000c20:	02e0a825 	move	s5,s7
80000c24:	1000ff62 	b	800009b0 <fdc_printi+0x100>
80000c28:	0000a825 	move	s5,zero
80000c2c:	02202025 	move	a0,s1
80000c30:	0c0001c7 	jal	8000071c <fdc_printchar>
80000c34:	2405002d 	li	a1,45
80000c38:	26f7ffff 	addiu	s7,s7,-1
80000c3c:	92120000 	lbu	s2,0(s0)
80000c40:	1000ff40 	b	80000944 <fdc_printi+0x94>
80000c44:	24160001 	li	s6,1
80000c48:	24140020 	li	s4,32
80000c4c:	00009025 	move	s2,zero
80000c50:	1000ffc1 	b	80000b58 <fdc_printi+0x2a8>
80000c54:	27b00010 	addiu	s0,sp,16
80000c58:	27a20027 	addiu	v0,sp,39
80000c5c:	1000ff84 	b	80000a70 <fdc_printi+0x1c0>
80000c60:	24140020 	li	s4,32
80000c64:	0000a825 	move	s5,zero
80000c68:	02a09025 	move	s2,s5
80000c6c:	1000ffba 	b	80000b58 <fdc_printi+0x2a8>
80000c70:	02e0a825 	move	s5,s7

80000c74 <fdc_print>:
fdc_print():
80000c74:	27bdffa8 	addiu	sp,sp,-88
80000c78:	afb3003c 	sw	s3,60(sp)
80000c7c:	afb20038 	sw	s2,56(sp)
80000c80:	afb10034 	sw	s1,52(sp)
80000c84:	afbf0054 	sw	ra,84(sp)
80000c88:	afbe0050 	sw	s8,80(sp)
80000c8c:	afb7004c 	sw	s7,76(sp)
80000c90:	afb60048 	sw	s6,72(sp)
80000c94:	afb50044 	sw	s5,68(sp)
80000c98:	afb40040 	sw	s4,64(sp)
80000c9c:	afb00030 	sw	s0,48(sp)
80000ca0:	00a09025 	move	s2,a1
80000ca4:	90a50000 	lbu	a1,0(a1)
80000ca8:	00808825 	move	s1,a0
80000cac:	afa60060 	sw	a2,96(sp)
80000cb0:	10a00034 	beqz	a1,80000d84 <fdc_print+0x110>
80000cb4:	00009825 	move	s3,zero
80000cb8:	24150025 	li	s5,37
80000cbc:	24100030 	li	s0,48
80000cc0:	14b50043 	bne	a1,s5,80000dd0 <fdc_print+0x15c>
80000cc4:	00000000 	nop
80000cc8:	92440001 	lbu	a0,1(s2)
80000ccc:	1080002d 	beqz	a0,80000d84 <fdc_print+0x110>
80000cd0:	26560001 	addiu	s6,s2,1
80000cd4:	1095003c 	beq	a0,s5,80000dc8 <fdc_print+0x154>
80000cd8:	2402002d 	li	v0,45
80000cdc:	14820005 	bne	a0,v0,80000cf4 <fdc_print+0x80>
80000ce0:	00003825 	move	a3,zero
80000ce4:	1000007a 	b	80000ed0 <fdc_print+0x25c>
80000ce8:	26560002 	addiu	s6,s2,2
80000cec:	92c40000 	lbu	a0,0(s6)
80000cf0:	34e70002 	ori	a3,a3,0x2
80000cf4:	5090fffd 	beql	a0,s0,80000cec <fdc_print+0x78>
80000cf8:	26d60001 	addiu	s6,s6,1
80000cfc:	2486ffd0 	addiu	a2,a0,-48
80000d00:	30c200ff 	andi	v0,a2,0xff
80000d04:	2c42000a 	sltiu	v0,v0,10
80000d08:	1040000c 	beqz	v0,80000d3c <fdc_print+0xc8>
80000d0c:	0000f025 	move	s8,zero
80000d10:	26d60001 	addiu	s6,s6,1
80000d14:	92c40000 	lbu	a0,0(s6)
80000d18:	001e2840 	sll	a1,s8,0x1
80000d1c:	001e10c0 	sll	v0,s8,0x3
80000d20:	00a21021 	addu	v0,a1,v0
80000d24:	00c2f021 	addu	s8,a2,v0
80000d28:	2486ffd0 	addiu	a2,a0,-48
80000d2c:	30c500ff 	andi	a1,a2,0xff
80000d30:	2ca5000a 	sltiu	a1,a1,10
80000d34:	54a0fff7 	bnezl	a1,80000d14 <fdc_print+0xa0>
80000d38:	26d60001 	addiu	s6,s6,1
80000d3c:	24020073 	li	v0,115
80000d40:	50820028 	beql	a0,v0,80000de4 <fdc_print+0x170>
80000d44:	8fa40060 	lw	a0,96(sp)
80000d48:	24050064 	li	a1,100
80000d4c:	10850066 	beq	a0,a1,80000ee8 <fdc_print+0x274>
80000d50:	24050078 	li	a1,120
80000d54:	10850072 	beq	a0,a1,80000f20 <fdc_print+0x2ac>
80000d58:	24050058 	li	a1,88
80000d5c:	50850081 	beql	a0,a1,80000f64 <fdc_print+0x2f0>
80000d60:	8fa60060 	lw	a2,96(sp)
80000d64:	24050075 	li	a1,117
80000d68:	10850085 	beq	a0,a1,80000f80 <fdc_print+0x30c>
80000d6c:	24050063 	li	a1,99
80000d70:	10850091 	beq	a0,a1,80000fb8 <fdc_print+0x344>
80000d74:	8fa40060 	lw	a0,96(sp)
80000d78:	92c50001 	lbu	a1,1(s6)
80000d7c:	14a0ffd0 	bnez	a1,80000cc0 <fdc_print+0x4c>
80000d80:	26d20001 	addiu	s2,s6,1
80000d84:	12200004 	beqz	s1,80000d98 <fdc_print+0x124>
80000d88:	8fbf0054 	lw	ra,84(sp)
80000d8c:	8e220000 	lw	v0,0(s1)
80000d90:	a0400000 	sb	zero,0(v0)
80000d94:	8fbf0054 	lw	ra,84(sp)
80000d98:	02601025 	move	v0,s3
80000d9c:	8fbe0050 	lw	s8,80(sp)
80000da0:	8fb7004c 	lw	s7,76(sp)
80000da4:	8fb60048 	lw	s6,72(sp)
80000da8:	8fb50044 	lw	s5,68(sp)
80000dac:	8fb40040 	lw	s4,64(sp)
80000db0:	8fb3003c 	lw	s3,60(sp)
80000db4:	8fb20038 	lw	s2,56(sp)
80000db8:	8fb10034 	lw	s1,52(sp)
80000dbc:	8fb00030 	lw	s0,48(sp)
80000dc0:	03e00008 	jr	ra
80000dc4:	27bd0058 	addiu	sp,sp,88
80000dc8:	02c09025 	move	s2,s6
80000dcc:	24050025 	li	a1,37
80000dd0:	0c0001c7 	jal	8000071c <fdc_printchar>
80000dd4:	02202025 	move	a0,s1
80000dd8:	26730001 	addiu	s3,s3,1
80000ddc:	1000ffe6 	b	80000d78 <fdc_print+0x104>
80000de0:	0240b025 	move	s6,s2
80000de4:	3c028000 	lui	v0,0x8000
80000de8:	2445118c 	addiu	a1,v0,4492
80000dec:	8c970000 	lw	s7,0(a0)
80000df0:	24840004 	addiu	a0,a0,4
80000df4:	afa40060 	sw	a0,96(sp)
80000df8:	00b7b80a 	movz	s7,a1,s7
80000dfc:	13c00056 	beqz	s8,80000f58 <fdc_print+0x2e4>
80000e00:	92e50000 	lbu	a1,0(s7)
80000e04:	10a00035 	beqz	a1,80000edc <fdc_print+0x268>
80000e08:	02e02025 	move	a0,s7
80000e0c:	00004025 	move	t0,zero
80000e10:	24840001 	addiu	a0,a0,1
80000e14:	90890000 	lbu	t1,0(a0)
80000e18:	1520fffd 	bnez	t1,80000e10 <fdc_print+0x19c>
80000e1c:	25080001 	addiu	t0,t0,1
80000e20:	011e202a 	slt	a0,t0,s8
80000e24:	14800002 	bnez	a0,80000e30 <fdc_print+0x1bc>
80000e28:	03c8f023 	subu	s8,s8,t0
80000e2c:	0000f025 	move	s8,zero
80000e30:	30f40002 	andi	s4,a3,0x2
80000e34:	24040020 	li	a0,32
80000e38:	0214200b 	movn	a0,s0,s4
80000e3c:	30e70001 	andi	a3,a3,0x1
80000e40:	0080a025 	move	s4,a0
80000e44:	14e0001e 	bnez	a3,80000ec0 <fdc_print+0x24c>
80000e48:	03c09025 	move	s2,s8
80000e4c:	5bc00008 	blezl	s8,80000e70 <fdc_print+0x1fc>
80000e50:	0000f025 	move	s8,zero
80000e54:	2652ffff 	addiu	s2,s2,-1
80000e58:	02202025 	move	a0,s1
80000e5c:	0c0001c7 	jal	8000071c <fdc_printchar>
80000e60:	02802825 	move	a1,s4
80000e64:	5640fffc 	bnezl	s2,80000e58 <fdc_print+0x1e4>
80000e68:	2652ffff 	addiu	s2,s2,-1
80000e6c:	92e50000 	lbu	a1,0(s7)
80000e70:	50a0ffc1 	beqzl	a1,80000d78 <fdc_print+0x104>
80000e74:	027e9821 	addu	s3,s3,s8
80000e78:	02202025 	move	a0,s1
80000e7c:	0c0001c7 	jal	8000071c <fdc_printchar>
80000e80:	26f70001 	addiu	s7,s7,1
80000e84:	92e50000 	lbu	a1,0(s7)
80000e88:	14a0fffb 	bnez	a1,80000e78 <fdc_print+0x204>
80000e8c:	27de0001 	addiu	s8,s8,1
80000e90:	5a40ffb9 	blezl	s2,80000d78 <fdc_print+0x104>
80000e94:	027e9821 	addu	s3,s3,s8
80000e98:	0240b825 	move	s7,s2
80000e9c:	26f7ffff 	addiu	s7,s7,-1
80000ea0:	02202025 	move	a0,s1
80000ea4:	0c0001c7 	jal	8000071c <fdc_printchar>
80000ea8:	02802825 	move	a1,s4
80000eac:	56e0fffc 	bnezl	s7,80000ea0 <fdc_print+0x22c>
80000eb0:	26f7ffff 	addiu	s7,s7,-1
80000eb4:	03d2f021 	addu	s8,s8,s2
80000eb8:	1000ffaf 	b	80000d78 <fdc_print+0x104>
80000ebc:	027e9821 	addu	s3,s3,s8
80000ec0:	14a0ffed 	bnez	a1,80000e78 <fdc_print+0x204>
80000ec4:	0000f025 	move	s8,zero
80000ec8:	1000fff1 	b	80000e90 <fdc_print+0x21c>
80000ecc:	00000000 	nop
80000ed0:	92440002 	lbu	a0,2(s2)
80000ed4:	1000ff87 	b	80000cf4 <fdc_print+0x80>
80000ed8:	24070001 	li	a3,1
80000edc:	00004025 	move	t0,zero
80000ee0:	1000ffd3 	b	80000e30 <fdc_print+0x1bc>
80000ee4:	03c8f023 	subu	s8,s8,t0
80000ee8:	8fa60060 	lw	a2,96(sp)
80000eec:	24020061 	li	v0,97
80000ef0:	02202025 	move	a0,s1
80000ef4:	8cc50000 	lw	a1,0(a2)
80000ef8:	24c80004 	addiu	t0,a2,4
80000efc:	afa70014 	sw	a3,20(sp)
80000f00:	afbe0010 	sw	s8,16(sp)
80000f04:	afa20018 	sw	v0,24(sp)
80000f08:	2406000a 	li	a2,10
80000f0c:	24070001 	li	a3,1
80000f10:	0c00022c 	jal	800008b0 <fdc_printi>
80000f14:	afa80060 	sw	t0,96(sp)
80000f18:	1000ff97 	b	80000d78 <fdc_print+0x104>
80000f1c:	02629821 	addu	s3,s3,v0
80000f20:	8fa60060 	lw	a2,96(sp)
80000f24:	02202025 	move	a0,s1
80000f28:	24020061 	li	v0,97
80000f2c:	8cc50000 	lw	a1,0(a2)
80000f30:	24c80004 	addiu	t0,a2,4
80000f34:	afbe0010 	sw	s8,16(sp)
80000f38:	afa70014 	sw	a3,20(sp)
80000f3c:	afa20018 	sw	v0,24(sp)
80000f40:	24060010 	li	a2,16
80000f44:	00003825 	move	a3,zero
80000f48:	0c00022c 	jal	800008b0 <fdc_printi>
80000f4c:	afa80060 	sw	t0,96(sp)
80000f50:	1000ff89 	b	80000d78 <fdc_print+0x104>
80000f54:	02629821 	addu	s3,s3,v0
80000f58:	00009025 	move	s2,zero
80000f5c:	1000ffc4 	b	80000e70 <fdc_print+0x1fc>
80000f60:	24140020 	li	s4,32
80000f64:	02202025 	move	a0,s1
80000f68:	24020041 	li	v0,65
80000f6c:	8cc50000 	lw	a1,0(a2)
80000f70:	24c80004 	addiu	t0,a2,4
80000f74:	afbe0010 	sw	s8,16(sp)
80000f78:	1000fff0 	b	80000f3c <fdc_print+0x2c8>
80000f7c:	afa70014 	sw	a3,20(sp)
80000f80:	8fa60060 	lw	a2,96(sp)
80000f84:	24020061 	li	v0,97
80000f88:	02202025 	move	a0,s1
80000f8c:	8cc50000 	lw	a1,0(a2)
80000f90:	24c80004 	addiu	t0,a2,4
80000f94:	afa70014 	sw	a3,20(sp)
80000f98:	afbe0010 	sw	s8,16(sp)
80000f9c:	afa20018 	sw	v0,24(sp)
80000fa0:	2406000a 	li	a2,10
80000fa4:	00003825 	move	a3,zero
80000fa8:	0c00022c 	jal	800008b0 <fdc_printi>
80000fac:	afa80060 	sw	t0,96(sp)
80000fb0:	1000ff71 	b	80000d78 <fdc_print+0x104>
80000fb4:	02629821 	addu	s3,s3,v0
80000fb8:	a3a00021 	sb	zero,33(sp)
80000fbc:	90860000 	lbu	a2,0(a0)
80000fc0:	24840004 	addiu	a0,a0,4
80000fc4:	afa40060 	sw	a0,96(sp)
80000fc8:	13c00031 	beqz	s8,80001090 <fdc_print+0x41c>
80000fcc:	a3a60020 	sb	a2,32(sp)
80000fd0:	10c00036 	beqz	a2,800010ac <fdc_print+0x438>
80000fd4:	27a40020 	addiu	a0,sp,32
80000fd8:	00002825 	move	a1,zero
80000fdc:	24840001 	addiu	a0,a0,1
80000fe0:	90880000 	lbu	t0,0(a0)
80000fe4:	1500fffd 	bnez	t0,80000fdc <fdc_print+0x368>
80000fe8:	24a50001 	addiu	a1,a1,1
80000fec:	00be202a 	slt	a0,a1,s8
80000ff0:	14800002 	bnez	a0,80000ffc <fdc_print+0x388>
80000ff4:	03c5f023 	subu	s8,s8,a1
80000ff8:	0000f025 	move	s8,zero
80000ffc:	30f40002 	andi	s4,a3,0x2
80001000:	24040020 	li	a0,32
80001004:	0214200b 	movn	a0,s0,s4
80001008:	30e70001 	andi	a3,a3,0x1
8000100c:	0080a025 	move	s4,a0
80001010:	14e00022 	bnez	a3,8000109c <fdc_print+0x428>
80001014:	03c09025 	move	s2,s8
80001018:	5bc00008 	blezl	s8,8000103c <fdc_print+0x3c8>
8000101c:	0000f025 	move	s8,zero
80001020:	02202025 	move	a0,s1
80001024:	02802825 	move	a1,s4
80001028:	2652ffff 	addiu	s2,s2,-1
8000102c:	0c0001c7 	jal	8000071c <fdc_printchar>
80001030:	afa60028 	sw	a2,40(sp)
80001034:	1640fffa 	bnez	s2,80001020 <fdc_print+0x3ac>
80001038:	8fa60028 	lw	a2,40(sp)
8000103c:	50c0ff4e 	beqzl	a2,80000d78 <fdc_print+0x104>
80001040:	027e9821 	addu	s3,s3,s8
80001044:	27b70020 	addiu	s7,sp,32
80001048:	00c02825 	move	a1,a2
8000104c:	02202025 	move	a0,s1
80001050:	0c0001c7 	jal	8000071c <fdc_printchar>
80001054:	26f70001 	addiu	s7,s7,1
80001058:	92e60000 	lbu	a2,0(s7)
8000105c:	14c0fffa 	bnez	a2,80001048 <fdc_print+0x3d4>
80001060:	27de0001 	addiu	s8,s8,1
80001064:	5a40ff44 	blezl	s2,80000d78 <fdc_print+0x104>
80001068:	027e9821 	addu	s3,s3,s8
8000106c:	0240b825 	move	s7,s2
80001070:	26f7ffff 	addiu	s7,s7,-1
80001074:	02202025 	move	a0,s1
80001078:	0c0001c7 	jal	8000071c <fdc_printchar>
8000107c:	02802825 	move	a1,s4
80001080:	56e0fffc 	bnezl	s7,80001074 <fdc_print+0x400>
80001084:	26f7ffff 	addiu	s7,s7,-1
80001088:	1000ff8b 	b	80000eb8 <fdc_print+0x244>
8000108c:	03d2f021 	addu	s8,s8,s2
80001090:	00009025 	move	s2,zero
80001094:	1000ffe9 	b	8000103c <fdc_print+0x3c8>
80001098:	24140020 	li	s4,32
8000109c:	14c0ffe9 	bnez	a2,80001044 <fdc_print+0x3d0>
800010a0:	0000f025 	move	s8,zero
800010a4:	1000ffef 	b	80001064 <fdc_print+0x3f0>
800010a8:	00000000 	nop
800010ac:	00002825 	move	a1,zero
800010b0:	1000ffd2 	b	80000ffc <fdc_print+0x388>
800010b4:	03c5f023 	subu	s8,s8,a1
800010b8:	1000ffe0 	b	8000103c <fdc_print+0x3c8>
800010bc:	0000f025 	move	s8,zero

800010c0 <fdc_printf>:
fdc_printf():
800010c0:	27bdffd8 	addiu	sp,sp,-40
800010c4:	00801825 	move	v1,a0
800010c8:	27a2002c 	addiu	v0,sp,44
800010cc:	00002025 	move	a0,zero
800010d0:	afa5002c 	sw	a1,44(sp)
800010d4:	afa60030 	sw	a2,48(sp)
800010d8:	00602825 	move	a1,v1
800010dc:	00403025 	move	a2,v0
800010e0:	afbf0024 	sw	ra,36(sp)
800010e4:	afa70034 	sw	a3,52(sp)
800010e8:	0c00031d 	jal	80000c74 <fdc_print>
800010ec:	afa20010 	sw	v0,16(sp)
800010f0:	0c0001c5 	jal	80000714 <fdc_printchar.constprop.0>
800010f4:	afa20018 	sw	v0,24(sp)
800010f8:	8fbf0024 	lw	ra,36(sp)
800010fc:	8fa20018 	lw	v0,24(sp)
80001100:	03e00008 	jr	ra
80001104:	27bd0028 	addiu	sp,sp,40

80001108 <fdc_flush>:
fdc_flush():
80001108:	080001c5 	j	80000714 <fdc_printchar.constprop.0>
8000110c:	00000000 	nop

80001110 <fdc_sprintf>:
fdc_sprintf():
80001110:	27bdffe0 	addiu	sp,sp,-32
80001114:	27a20028 	addiu	v0,sp,40
80001118:	afa40020 	sw	a0,32(sp)
8000111c:	afa60028 	sw	a2,40(sp)
80001120:	27a40020 	addiu	a0,sp,32
80001124:	00403025 	move	a2,v0
80001128:	afbf001c 	sw	ra,28(sp)
8000112c:	afa7002c 	sw	a3,44(sp)
80001130:	0c00031d 	jal	80000c74 <fdc_print>
80001134:	afa20010 	sw	v0,16(sp)
80001138:	8fbf001c 	lw	ra,28(sp)
8000113c:	03e00008 	jr	ra
80001140:	27bd0020 	addiu	sp,sp,32

Disassembly of section .rodata:

80001160 <.rodata>:
80001160:	75736552 	jalx	85cd9548 <__stack+0x5c99548>
80001164:	305b746c 	andi	k1,v0,0x746c
80001168:	64253d5d 	0x64253d5d
8000116c:	6552202c 	0x6552202c
80001170:	746c7573 	jalx	81b1d5cc <__stack+0x1add5cc>
80001174:	5d30355b 	0x5d30355b
80001178:	2c64253d 	sltiu	a0,v1,9533
8000117c:	73655220 	0x73655220
80001180:	5b746c75 	0x5b746c75
80001184:	3d5d3939 	0x3d5d3939
80001188:	000a6425 	0xa6425
8000118c:	6c756e28 	0x6c756e28
80001190:	0000296c 	0x296c

Disassembly of section .sbss:

800011a0 <_edata>:
_fdata():
800011a0:	00000000 	nop

800011a4 <fdc_buff>:
800011a4:	00000000 	nop

800011a8 <timeout>:
800011a8:	00000000 	nop

800011ac <fdc_char_count>:
800011ac:	00000000 	nop

800011b0 <gCDMMBase>:
800011b0:	00000000 	nop

800011b4 <cdmm_was_mapped>:
800011b4:	00000000 	nop

800011b8 <fdcBaseAddr>:
800011b8:	00000000 	nop

Disassembly of section .bss:

800011bc <_bss_start>:
	...

Disassembly of section .debug_aranges:

00000000 <.debug_aranges>:
   0:	0000001c 	0x1c
   4:	00000002 	srl	zero,zero,0x0
   8:	00040000 	sll	zero,a0,0x0
   c:	00000000 	nop
  10:	9fc00144 	0x9fc00144
  14:	00000070 	tge	zero,zero,0x1
	...
  20:	0000001c 	0x1c
  24:	005a0002 	0x5a0002
  28:	00040000 	sll	zero,a0,0x0
  2c:	00000000 	nop
  30:	9fc00000 	0x9fc00000
  34:	00000144 	0x144
	...
  40:	0000001c 	0x1c
  44:	00b40002 	0xb40002
  48:	00040000 	sll	zero,a0,0x0
  4c:	00000000 	nop
  50:	80000000 	lb	zero,0(zero)
  54:	00000198 	0x198
	...
  60:	0000001c 	0x1c
  64:	01140002 	0x1140002
  68:	00040000 	sll	zero,a0,0x0
  6c:	00000000 	nop
  70:	80000200 	lb	zero,512(zero)
  74:	00000004 	sllv	zero,zero,zero
	...
  80:	0000001c 	0x1c
  84:	016f0002 	0x16f0002
  88:	00040000 	sll	zero,a0,0x0
  8c:	00000000 	nop
  90:	80000204 	lb	zero,516(zero)
  94:	000002c8 	0x2c8
	...

Disassembly of section .debug_info:

00000000 <.debug_info>:
   0:	00000056 	0x56
   4:	00000002 	srl	zero,zero,0x0
   8:	01040000 	0x1040000
   c:	00000000 	nop
  10:	9fc00144 	0x9fc00144
  14:	9fc001b4 	0x9fc001b4
  18:	30747263 	andi	s4,v1,0x7263
  1c:	4300532e 	c0	0x100532e
  20:	73555c3a 	0x73555c3a
  24:	5c737265 	0x5c737265
  28:	696e6144 	0x696e6144
  2c:	7365445c 	udi12	k1,a1,t0,0x11
  30:	706f746b 	s16std	xr1,v1,-70,ptn1
  34:	6578455c 	0x6578455c
  38:	73696372 	0x73696372
  3c:	525f3365 	beql	s2,ra,cdd4 <__isr_vec_space+0xcdb4>
  40:	64726f65 	0x64726f65
  44:	64657265 	0x64657265
  48:	554e4700 	bnel	t2,t6,11c4c <__isr_vec_space+0x11c2c>
  4c:	20534120 	addi	s3,v0,16672
  50:	34322e32 	ori	s2,at,0x2e32
  54:	0030392e 	0x30392e
  58:	00568001 	0x568001
  5c:	00020000 	sll	zero,v0,0x0
  60:	00000014 	0x14
  64:	00480104 	0x480104
  68:	00000000 	nop
  6c:	01449fc0 	0x1449fc0
  70:	6f629fc0 	0x6f629fc0
  74:	532e746f 	beql	t9,t6,1d234 <__isr_vec_space+0x1d214>
  78:	5c3a4300 	0x5c3a4300
  7c:	72657355 	s32sdi	xr13,s3,1392
  80:	61445c73 	0x61445c73
  84:	445c696e 	0x445c696e
  88:	746b7365 	jalx	1adcd94 <__memory_size+0x1abd594>
  8c:	455c706f 	bc1any4f	$fcc7,1c24c <__isr_vec_space+0x1c22c>
  90:	63726578 	0x63726578
  94:	33657369 	andi	a1,k1,0x7369
  98:	6f65525f 	0x6f65525f
  9c:	72656472 	0x72656472
  a0:	47006465 	bz.b	$w0,19238 <__isr_vec_space+0x19218>
  a4:	4120554e 	0x4120554e
  a8:	2e322053 	sltiu	s2,s1,8275
  ac:	392e3432 	xori	t6,t1,0x3432
  b0:	80010030 	lb	at,48(zero)
  b4:	0000005c 	0x5c
  b8:	00280002 	ror	zero,t0,0x0
  bc:	01040000 	0x1040000
  c0:	000000ce 	0xce
  c4:	80000000 	lb	zero,0(zero)
  c8:	80000198 	lb	zero,408(zero)
  cc:	65637865 	0x65637865
  d0:	6f697470 	0x6f697470
  d4:	532e736e 	beql	t9,t6,1ce90 <__isr_vec_space+0x1ce70>
  d8:	5c3a4300 	0x5c3a4300
  dc:	72657355 	s32sdi	xr13,s3,1392
  e0:	61445c73 	0x61445c73
  e4:	445c696e 	0x445c696e
  e8:	746b7365 	jalx	1adcd94 <__memory_size+0x1abd594>
  ec:	455c706f 	bc1any4f	$fcc7,1c2ac <__isr_vec_space+0x1c28c>
  f0:	63726578 	0x63726578
  f4:	33657369 	andi	a1,k1,0x7369
  f8:	6f65525f 	0x6f65525f
  fc:	72656472 	0x72656472
 100:	47006465 	bz.b	$w0,19298 <__isr_vec_space+0x19278>
 104:	4120554e 	0x4120554e
 108:	2e322053 	sltiu	s2,s1,8275
 10c:	392e3432 	xori	t6,t1,0x3432
 110:	80010030 	lb	at,48(zero)
 114:	00000057 	0x57
 118:	003c0002 	ror	zero,gp,0x0
 11c:	01040000 	0x1040000
 120:	0000011b 	0x11b
 124:	80000200 	lb	zero,512(zero)
 128:	80000204 	lb	zero,516(zero)
 12c:	6d6d7564 	0x6d6d7564
 130:	00532e79 	0x532e79
 134:	555c3a43 	bnel	t2,gp,ea44 <__isr_vec_space+0xea24>
 138:	73726573 	d32sar	xr5,xr9,xr9,xr12,13
 13c:	6e61445c 	0x6e61445c
 140:	65445c69 	0x65445c69
 144:	6f746b73 	0x6f746b73
 148:	78455c70 	0x78455c70
 14c:	69637265 	0x69637265
 150:	5f336573 	0x5f336573
 154:	726f6552 	udi2	s3,t7,t4,0x15
 158:	65726564 	0x65726564
 15c:	4e470064 	c3	0x470064
 160:	53412055 	beql	k0,at,82b8 <__isr_vec_space+0x8298>
 164:	322e3220 	andi	t6,s1,0x3220
 168:	30392e34 	andi	t9,at,0x2e34
 16c:	b2800100 	0xb2800100
 170:	04000001 	bltz	zero,178 <__isr_vec_space+0x158>
 174:	00005000 	sll	t2,zero,0x0
 178:	4b010400 	c2	0x1010400
 17c:	01000000 	0x1000000
 180:	00000125 	0x125
 184:	000000b5 	0xb5
 188:	80000204 	lb	zero,516(zero)
 18c:	000002c8 	0x2c8
 190:	00000152 	0x152
 194:	fa070402 	sdc2	$7,1026(s0)
 198:	02000000 	0x2000000
 19c:	00ff0704 	0xff0704
 1a0:	ad030000 	sw	v1,0(t0)
 1a4:	02000000 	0x2000000
 1a8:	002c0393 	0x2c0393
 1ac:	08020000 	j	80000 <__memory_size+0x60800>
 1b0:	0000f507 	0xf507
 1b4:	05040400 	0x5040400
 1b8:	00746e69 	0x746e69
 1bc:	2d080102 	sltiu	t0,t0,258
 1c0:	02000000 	0x2000000
 1c4:	009a0702 	0x9a0702
 1c8:	02020000 	0x2020000
 1cc:	00013a05 	0x13a05
 1d0:	01080500 	0x1080500
 1d4:	0000831c 	0x831c
 1d8:	01440600 	0x1440600
 1dc:	1e010000 	0x1e010000
 1e0:	0000002c 	0x2c
 1e4:	014b0600 	0x14b0600
 1e8:	1f010000 	0x1f010000
 1ec:	0000002c 	0x2c
 1f0:	2c070004 	sltiu	a3,zero,4
 1f4:	01000001 	movf	zero,t0,$fcc0
 1f8:	00006221 	0x6221
 1fc:	00df0800 	0xdf0800
 200:	27010000 	addiu	at,t8,0
 204:	00000046 	rorv	zero,zero,zero
 208:	80000204 	lb	zero,516(zero)
 20c:	00000194 	0x194
 210:	00f49c01 	0xf49c01
 214:	00090000 	sll	zero,t1,0x0
 218:	01000000 	0x1000000
 21c:	00008329 	0x8329
 220:	6c910200 	0x6c910200
 224:	0100690a 	0x100690a
 228:	0000462a 	0x462a
 22c:	68910200 	0x68910200
 230:	0002ac0b 	0x2ac0b
 234:	00000c80 	sll	at,zero,0x12
 238:	0000dc00 	sll	k1,zero,0x10
 23c:	5f5f0a00 	0x5f5f0a00
 240:	43010072 	c0	0x1010072
 244:	00000025 	move	zero,zero
 248:	0c006f01 	jal	1bc04 <__isr_vec_space+0x1bbe4>
 24c:	800002bc 	lb	zero,700(zero)
 250:	0000000c 	syscall
 254:	725f5f0a 	d16mac	xr12,xr7,xr13,xr7,SA,LW
 258:	25430100 	addiu	v1,t2,256
 25c:	01000000 	0x1000000
 260:	0d00006f 	jal	40001bc <__memory_size+0x3fe09bc>
 264:	0000003b 	0x3b
 268:	03985c01 	0x3985c01
 26c:	010c8000 	0x10c8000
 270:	9c010000 	0x9c010000
 274:	0000014e 	0x14e
 278:	6c61760e 	0x6c61760e
 27c:	2c5c0100 	sltiu	gp,v0,256
 280:	02000000 	0x2000000
 284:	ef090091 	swc3	$9,145(t8)
 288:	01000000 	0x1000000
 28c:	00014e5e 	0x14e5e
 290:	68910200 	0x68910200
 294:	0100690a 	0x100690a
 298:	00014e5e 	0x14e5e
 29c:	6c910200 	0x6c910200
 2a0:	00000c09 	jalr.hb	at,zero
 2a4:	535f0100 	beql	k0,ra,6a8 <__isr_vec_space+0x688>
 2a8:	02000001 	movf	zero,s0,$fcc0
 2ac:	0c097091 	jal	25c244 <__memory_size+0x23ca44>
 2b0:	01000001 	movf	zero,t0,$fcc0
 2b4:	0001535f 	0x1535f
 2b8:	74910200 	jalx	2440800 <__memory_size+0x2421000>
 2bc:	00460f00 	0x460f00
 2c0:	2c0f0000 	sltiu	t7,zero,0
 2c4:	0d000000 	jal	4000000 <__memory_size+0x3fe0800>
 2c8:	00000016 	0x16
 2cc:	04a47101 	0x4a47101
 2d0:	00288000 	0x288000
 2d4:	9c010000 	0x9c010000
 2d8:	0000018a 	0x18a
 2dc:	7874630e 	addv.d	$w12,$w12,$w20
 2e0:	8a710100 	lwl	s1,256(s3)
 2e4:	02000001 	movf	zero,s0,$fcc0
 2e8:	15100091 	bne	t0,s0,530 <__isr_vec_space+0x510>
 2ec:	01000001 	movf	zero,t0,$fcc0
 2f0:	00004671 	tgeu	zero,zero,0x119
 2f4:	04910200 	bgezal	a0,af8 <__isr_vec_space+0xad8>
 2f8:	12041100 	beq	s0,a0,46fc <__isr_vec_space+0x46dc>
 2fc:	00000046 	rorv	zero,zero,zero
 300:	0000019d 	0x19d
 304:	00019d13 	0x19d13
 308:	00012b00 	sll	a1,at,0xc
 30c:	1c070402 	0x1c070402
 310:	14000001 	bnez	zero,318 <__isr_vec_space+0x2f8>
 314:	000000e4 	0xe4
 318:	018c2301 	0x18c2301
 31c:	03050000 	0x3050000
 320:	800011bc 	lb	zero,4540(zero)
	...

Disassembly of section .debug_abbrev:

00000000 <.debug_abbrev>:
   0:	10001101 	b	4408 <__isr_vec_space+0x43e8>
   4:	12011106 	beq	s0,at,4420 <__isr_vec_space+0x4400>
   8:	1b080301 	0x1b080301
   c:	13082508 	beq	t8,t0,9430 <__isr_vec_space+0x9410>
  10:	00000005 	lsa	zero,zero,zero,0x1
  14:	10001101 	b	441c <__isr_vec_space+0x43fc>
  18:	12011106 	beq	s0,at,4434 <__isr_vec_space+0x4414>
  1c:	1b080301 	0x1b080301
  20:	13082508 	beq	t8,t0,9444 <__isr_vec_space+0x9424>
  24:	00000005 	lsa	zero,zero,zero,0x1
  28:	10001101 	b	4430 <__isr_vec_space+0x4410>
  2c:	12011106 	beq	s0,at,4448 <__isr_vec_space+0x4428>
  30:	1b080301 	0x1b080301
  34:	13082508 	beq	t8,t0,9458 <__isr_vec_space+0x9438>
  38:	00000005 	lsa	zero,zero,zero,0x1
  3c:	10001101 	b	4444 <__isr_vec_space+0x4424>
  40:	12011106 	beq	s0,at,445c <__isr_vec_space+0x443c>
  44:	1b080301 	0x1b080301
  48:	13082508 	beq	t8,t0,946c <__isr_vec_space+0x944c>
  4c:	00000005 	lsa	zero,zero,zero,0x1
  50:	25011101 	addiu	at,t0,4353
  54:	030b130e 	0x30b130e
  58:	110e1b0e 	beq	t0,t6,6c94 <__isr_vec_space+0x6c74>
  5c:	10061201 	beq	zero,a2,4864 <__isr_vec_space+0x4844>
  60:	02000017 	0x2000017
  64:	0b0b0024 	j	c2c0090 <__memory_size+0xc2a0890>
  68:	0e030b3e 	jal	80c2cf8 <__memory_size+0x80a34f8>
  6c:	16030000 	bne	s0,v1,70 <__isr_vec_space+0x50>
  70:	3a0e0300 	xori	t6,s0,0x300
  74:	49053b0b 	bc2t	$cc1,eca4 <__isr_vec_space+0xec84>
  78:	04000013 	bltz	zero,c8 <__isr_vec_space+0xa8>
  7c:	0b0b0024 	j	c2c0090 <__memory_size+0xc2a0890>
  80:	08030b3e 	j	c2cf8 <__memory_size+0xa34f8>
  84:	13050000 	beq	t8,a1,88 <__isr_vec_space+0x68>
  88:	3a0b0b01 	xori	t3,s0,0xb01
  8c:	010b3b0b 	0x10b3b0b
  90:	06000013 	bltz	s0,e0 <__isr_vec_space+0xc0>
  94:	0e03000d 	jal	80c0034 <__memory_size+0x80a0834>
  98:	0b3b0b3a 	j	cec2ce8 <__memory_size+0xcea34e8>
  9c:	0b381349 	j	ce04d24 <__memory_size+0xcde5524>
  a0:	16070000 	bne	s0,a3,a4 <__isr_vec_space+0x84>
  a4:	3a0e0300 	xori	t6,s0,0x300
  a8:	490b3b0b 	bc2tl	$cc2,ecd8 <__isr_vec_space+0xecb8>
  ac:	08000013 	j	4c <__isr_vec_space+0x2c>
  b0:	193f012e 	0x193f012e
  b4:	0b3a0e03 	j	ce8380c <__memory_size+0xce6400c>
  b8:	13490b3b 	beq	k0,t1,2da8 <__isr_vec_space+0x2d88>
  bc:	06120111 	bltzall	s0,504 <__isr_vec_space+0x4e4>
  c0:	42961840 	c0	0x961840
  c4:	00130119 	0x130119
  c8:	00340900 	0x340900
  cc:	0b3a0e03 	j	ce8380c <__memory_size+0xce6400c>
  d0:	13490b3b 	beq	k0,t1,2dc0 <__isr_vec_space+0x2da0>
  d4:	00001802 	srl	v1,zero,0x0
  d8:	0300340a 	0x300340a
  dc:	3b0b3a08 	xori	t3,t8,0x3a08
  e0:	0213490b 	0x213490b
  e4:	0b000018 	j	c000060 <__memory_size+0xbfe0860>
  e8:	0111010b 	0x111010b
  ec:	13010612 	beq	t8,at,1938 <__isr_vec_space+0x1918>
  f0:	0b0c0000 	j	c300000 <__memory_size+0xc2e0800>
  f4:	12011101 	beq	s0,at,44fc <__isr_vec_space+0x44dc>
  f8:	0d000006 	jal	4000018 <__memory_size+0x3fe0818>
  fc:	193f012e 	0x193f012e
 100:	0b3a0e03 	j	ce8380c <__memory_size+0xce6400c>
 104:	19270b3b 	0x19270b3b
 108:	06120111 	bltzall	s0,550 <__isr_vec_space+0x530>
 10c:	42971840 	c0	0x971840
 110:	00130119 	0x130119
 114:	00050e00 	sll	at,a1,0x18
 118:	0b3a0803 	j	ce8200c <__memory_size+0xce6280c>
 11c:	13490b3b 	beq	k0,t1,2e0c <__isr_vec_space+0x2dec>
 120:	00001802 	srl	v1,zero,0x0
 124:	4900350f 	bc2f	d564 <__isr_vec_space+0xd544>
 128:	10000013 	b	178 <__isr_vec_space+0x158>
 12c:	0e030005 	jal	80c0014 <__memory_size+0x80a0814>
 130:	0b3b0b3a 	j	cec2ce8 <__memory_size+0xcea34e8>
 134:	18021349 	0x18021349
 138:	0f110000 	jal	c440000 <__memory_size+0xc420800>
 13c:	000b0b00 	sll	at,t3,0xc
 140:	01011200 	0x1011200
 144:	13011349 	beq	t8,at,4e6c <__isr_vec_space+0x4e4c>
 148:	21130000 	addi	s3,t0,0
 14c:	2f134900 	sltiu	s3,t8,18688
 150:	14000005 	bnez	zero,168 <__isr_vec_space+0x148>
 154:	0e030034 	jal	80c00d0 <__memory_size+0x80a08d0>
 158:	0b3b0b3a 	j	cec2ce8 <__memory_size+0xcea34e8>
 15c:	193f1349 	0x193f1349
 160:	00001802 	srl	v1,zero,0x0
	...

Disassembly of section .debug_line:

00000000 <.debug_line>:
   0:	00000044 	0x44
   4:	001d0002 	srl	zero,sp,0x0
   8:	01010000 	0x1010000
   c:	000d0efb 	0xd0efb
  10:	01010101 	0x1010101
  14:	01000000 	0x1000000
  18:	00010000 	sll	zero,at,0x0
  1c:	30747263 	andi	s4,v1,0x7263
  20:	0000532e 	0x532e
  24:	00000000 	nop
  28:	01440205 	0x1440205
  2c:	0f039fc0 	jal	c0e7f00 <__memory_size+0xc0c8700>
  30:	84844c01 	lh	a0,19457(a0)
  34:	4b848383 	c2	0x1848383
  38:	4e4c854b 	c3	0x4c854b
  3c:	4d4b4b4b 	0x4d4b4b4b
  40:	024b8583 	0x24b8583
  44:	01010008 	0x1010008
  48:	00000082 	srl	zero,zero,0x2
  4c:	001d0002 	srl	zero,sp,0x0
  50:	01010000 	0x1010000
  54:	000d0efb 	0xd0efb
  58:	01010101 	0x1010101
  5c:	01000000 	0x1000000
  60:	00010000 	sll	zero,at,0x0
  64:	746f6f62 	jalx	1bdbd88 <__memory_size+0x1bbc588>
  68:	0000532e 	0x532e
  6c:	00000000 	nop
  70:	00000205 	0x205
  74:	13039fc0 	beq	t8,v1,fffe7f78 <__entry+0x403e7f78>
  78:	4d835101 	0x4d835101
  7c:	4a0a034d 	c2	0xa034d
  80:	4d4b4b4b 	0x4d4b4b4b
  84:	4b4b4b4b 	c2	0x14b4b4b
  88:	4b4d4b4b 	c2	0x14d4b4b
  8c:	4c4b4b4b 	0x4c4b4b4b
  90:	4b4b514b 	c2	0x14b514b
  94:	4c4b4c4b 	0x4c4b4c4b
  98:	4b4c4b4b 	c2	0x14c4b4b
  9c:	4b4c4b4b 	c2	0x14c4b4b
  a0:	4b4b4b4f 	c2	0x14b4b4f
  a4:	4b4a0c03 	c2	0x14a0c03
  a8:	834c4b4b 	lb	t4,19275(k0)
  ac:	4b4b504b 	c2	0x14b504b
  b0:	4c4b4c4b 	0x4c4b4c4b
  b4:	4b4c4b4b 	c2	0x14c4b4b
  b8:	4b4c4b4b 	c2	0x14c4b4b
  bc:	4b4b4f4b 	c2	0x14b4f4b
  c0:	4c834f4b 	0x4c834f4b
  c4:	504e4b83 	beql	v0,t6,12ed4 <__isr_vec_space+0x12eb4>
  c8:	0004024b 	0x4024b
  cc:	00490101 	0x490101
  d0:	00020000 	sll	zero,v0,0x0
  d4:	00000023 	negu	zero,zero
  d8:	0efb0101 	jal	bec0404 <__memory_size+0xbea0c04>
  dc:	0101000d 	break	0x101
  e0:	00000101 	0x101
  e4:	00000100 	sll	zero,zero,0x4
  e8:	78650001 	bmnzi.b	$w0,$w0,0x65
  ec:	74706563 	jalx	1c1958c <__memory_size+0x1bf9d8c>
  f0:	736e6f69 	0x736e6f69
  f4:	0000532e 	0x532e
  f8:	00000000 	nop
  fc:	00000205 	0x205
 100:	2c038000 	sltiu	v1,zero,-32768
 104:	02838301 	0x2838301
 108:	83831770 	lb	v1,6000(gp)
 10c:	83177002 	lb	s7,28674(t8)
 110:	17700283 	bne	k1,s0,b20 <__isr_vec_space+0xb00>
 114:	08028383 	j	a0e0c <__memory_size+0x8160c>
 118:	33010100 	andi	at,t8,0x100
 11c:	02000000 	0x2000000
 120:	00001e00 	sll	v1,zero,0x18
 124:	fb010100 	sdc2	$1,256(t8)
 128:	01000d0e 	0x1000d0e
 12c:	00010101 	0x10101
 130:	00010000 	sll	zero,at,0x0
 134:	64000100 	0x64000100
 138:	796d6d75 	0x796d6d75
 13c:	0000532e 	0x532e
 140:	00000000 	nop
 144:	02000205 	0x2000205
 148:	3a038000 	xori	v1,s0,0x8000
 14c:	00040201 	0x40201
 150:	00f00101 	0xf00101
 154:	00020000 	sll	zero,v0,0x0
 158:	00000078 	0x78
 15c:	0efb0101 	jal	bec0404 <__memory_size+0xbea0c04>
 160:	0101000d 	break	0x101
 164:	00000101 	0x101
 168:	00000100 	sll	zero,zero,0x4
 16c:	5c3a6301 	0x5c3a6301
 170:	676f7270 	0x676f7270
 174:	317e6172 	andi	s8,t3,0x6172
 178:	616d695c 	0x616d695c
 17c:	7e6e6967 	0x7e6e6967
 180:	6f745c31 	0x6f745c31
 184:	68636c6f 	0x68636c6f
 188:	6d5c317e 	0x6d5c317e
 18c:	2d737069 	sltiu	s3,t3,28777
 190:	2d69746d 	sltiu	t1,t3,29805
 194:	5c666c65 	0x5c666c65
 198:	36313032 	ori	s1,s1,0x3032
 19c:	2d35302e 	sltiu	s5,t1,12334
 1a0:	6d5c3330 	0x6d5c3330
 1a4:	2d737069 	sltiu	s3,t3,28777
 1a8:	2d69746d 	sltiu	t1,t3,29805
 1ac:	5c666c65 	0x5c666c65
 1b0:	6c636e69 	0x6c636e69
 1b4:	5c656475 	0x5c656475
 1b8:	7370696d 	s16sdi	xr5,k1,52,
 1bc:	616d0000 	0x616d0000
 1c0:	632e6e69 	0x632e6e69
 1c4:	00000000 	nop
 1c8:	6332336d 	0x6332336d
 1cc:	00682e30 	tge	v1,t0,0xb8
 1d0:	00000001 	movf	zero,zero,$fcc0
 1d4:	04020500 	bltzl	zero,15d8 <__isr_vec_space+0x15b8>
 1d8:	03800002 	0x3800002
 1dc:	00f70126 	0xf70126
 1e0:	06030402 	bgezl	s0,11ec <__isr_vec_space+0x11cc>
 1e4:	040200ba 	bltzl	zero,4d0 <__isr_vec_space+0x4b0>
 1e8:	12280201 	beq	s1,t0,9f0 <__isr_vec_space+0x9d0>
 1ec:	2802f506 	slti	v0,zero,-2810
 1f0:	02120314 	0x2120314
 1f4:	4002012c 	0x4002012c
 1f8:	38028314 	xori	v0,zero,0x8314
 1fc:	14280217 	bne	at,t0,a5c <__isr_vec_space+0xa3c>
 200:	84f384f3 	lh	s3,-31501(a3)
 204:	4bf489bc 	c2	0x1f489bc
 208:	0402004d 	bltzl	zero,340 <__isr_vec_space+0x320>
 20c:	0200bb04 	0x200bb04
 210:	2c020404 	sltiu	v0,zero,1028
 214:	04020013 	bltzl	zero,264 <__isr_vec_space+0x244>
 218:	00e50804 	sllv	at,a1,a3
 21c:	08040402 	j	101008 <__memory_size+0xe1808>
 220:	040200ad 	bltzl	zero,4d8 <__isr_vec_space+0x4b8>
 224:	00a80804 	sllv	at,t0,a1
 228:	06010402 	bgez	s0,1234 <__isr_vec_space+0x1214>
 22c:	040200ba 	bltzl	zero,518 <__isr_vec_space+0x4f8>
 230:	f906ba03 	sdc2	$6,-17917(t0)
 234:	4b3e08f3 	c2	0x13e08f3
 238:	3d084008 	0x3d084008
 23c:	01040200 	0x1040200
 240:	000802bb 	0x802bb
 244:	Address 0x0000000000000244 is out of bounds.


Disassembly of section .debug_frame:

00000000 <.debug_frame>:
   0:	0000000c 	syscall
   4:	ffffffff 	sdc3	$31,-1(ra)
   8:	7c010001 	0x7c010001
   c:	001d0d1f 	0x1d0d1f
  10:	00000018 	mult	zero,zero
  14:	00000000 	nop
  18:	80000204 	lb	zero,516(zero)
  1c:	00000194 	0x194
  20:	48280e44 	0x48280e44
  24:	029e019f 	0x29e019f
  28:	001e0d44 	0x1e0d44
  2c:	00000020 	add	zero,zero,zero
  30:	00000000 	nop
  34:	80000398 	lb	zero,920(zero)
  38:	0000010c 	syscall	0x4
  3c:	44180e44 	0x44180e44
  40:	0d44019e 	jal	5100678 <__memory_size+0x50e0e78>
  44:	0df0021e 	jal	7c00878 <__memory_size+0x7be1078>
  48:	0ede481d 	jal	b792074 <__memory_size+0xb772874>
  4c:	00000000 	nop
  50:	00000018 	mult	zero,zero
  54:	00000000 	nop
  58:	800004a4 	lb	zero,1188(zero)
  5c:	00000028 	0x28
  60:	44080e44 	0x44080e44
  64:	0d44019e 	jal	5100678 <__memory_size+0x50e0e78>
  68:	0000001e 	0x1e

Disassembly of section .debug_str:

00000000 <.debug_str>:
   0:	74736574 	jalx	1cd95d0 <__memory_size+0x1cb9dd0>
   4:	7365725f 	udi15	k1,a1,t6,0x9
   8:	00746c75 	0x746c75
   c:	446c6c61 	0x446c6c61
  10:	74696769 	jalx	1a59da4 <__memory_size+0x1a3a5a4>
  14:	6d5f0073 	0x6d5f0073
  18:	5f737069 	0x5f737069
  1c:	646e6168 	0x646e6168
  20:	655f656c 	0x655f656c
  24:	70656378 	0x70656378
  28:	6e6f6974 	0x6e6f6974
  2c:	736e7500 	0x736e7500
  30:	656e6769 	0x656e6769
  34:	68632064 	0x68632064
  38:	77007261 	jalx	c01c984 <__memory_size+0xbffd184>
  3c:	65746972 	0x65746972
  40:	546c6156 	bnel	v1,t4,1859c <__isr_vec_space+0x1857c>
  44:	6553376f 	0x6553376f
  48:	47007367 	bz.b	$w0,1cde8 <__isr_vec_space+0x1cdc8>
  4c:	4320554e 	c0	0x120554e
  50:	392e3420 	xori	t6,t1,0x3420
  54:	2d20322e 	sltiu	zero,t1,12846
  58:	206c656d 	addi	t4,v1,25965
  5c:	72616d2d 	s16sdi	xr4,s3,182,ptn0
  60:	6d3d6863 	0x6d3d6863
  64:	636b3431 	0x636b3431
  68:	736d2d20 	0x736d2d20
  6c:	2d74666f 	sltiu	s4,t3,26223
  70:	616f6c66 	0x616f6c66
  74:	6d2d2074 	0x6d2d2074
  78:	20746c70 	addi	s4,v1,27760
  7c:	70696d2d 	s16sdi	xr4,v1,182,ptn1
  80:	72323373 	d32sar	xr13,xr12,xr8,xr12,8
  84:	6d2d2032 	0x6d2d2032
  88:	636e7973 	0x636e7973
  8c:	6d2d2069 	0x6d2d2069
  90:	3d696261 	0x3d696261
  94:	2d203233 	sltiu	zero,t1,12851
  98:	68730067 	0x68730067
  9c:	2074726f 	addi	s4,v1,29295
  a0:	69736e75 	0x69736e75
  a4:	64656e67 	0x64656e67
  a8:	746e6920 	jalx	1b9a480 <__memory_size+0x1b7ac80>
  ac:	67657200 	0x67657200
  b0:	745f3233 	jalx	17cc8cc <__memory_size+0x17ad0cc>
  b4:	5c3a4300 	0x5c3a4300
  b8:	72657355 	s32sdi	xr13,s3,1392
  bc:	61445c73 	0x61445c73
  c0:	445c696e 	0x445c696e
  c4:	746b7365 	jalx	1adcd94 <__memory_size+0x1abd594>
  c8:	455c706f 	bc1any4f	$fcc7,1c288 <__isr_vec_space+0x1c268>
  cc:	63726578 	0x63726578
  d0:	33657369 	andi	a1,k1,0x7369
  d4:	6f65525f 	0x6f65525f
  d8:	72656472 	0x72656472
  dc:	6d006465 	0x6d006465
  e0:	006e6961 	0x6e6961
  e4:	74736574 	jalx	1cd95d0 <__memory_size+0x1cb9dd0>
  e8:	7272615f 	udi15	s3,s2,t4,0x5
  ec:	64007961 	0x64007961
  f0:	74696769 	jalx	1a59da4 <__memory_size+0x1a3a5a4>
  f4:	6e6f6c00 	0x6e6f6c00
  f8:	6f6c2067 	0x6f6c2067
  fc:	7520676e 	jalx	4819db8 <__memory_size+0x47fa5b8>
 100:	6769736e 	0x6769736e
 104:	2064656e 	addi	a0,v1,25966
 108:	00746e69 	0x746e69
 10c:	69446e65 	0x69446e65
 110:	73746967 	0x73746967
 114:	61657200 	0x61657200
 118:	006e6f73 	tltu	v1,t6,0x1bd
 11c:	657a6973 	0x657a6973
 120:	65707974 	0x65707974
 124:	69616d00 	0x69616d00
 128:	00632e6e 	0x632e6e
 12c:	74736574 	jalx	1cd95d0 <__memory_size+0x1cb9dd0>
 130:	7365725f 	udi15	k1,a1,t6,0x9
 134:	5f746c75 	0x5f746c75
 138:	68730074 	0x68730074
 13c:	2074726f 	addi	s4,v1,29295
 140:	00746e69 	0x746e69
 144:	6e657665 	0x6e657665
 148:	65003174 	0x65003174
 14c:	746e6576 	jalx	1b995d8 <__memory_size+0x1b79dd8>
 150:	Address 0x0000000000000150 is out of bounds.


Disassembly of section .pdr:

00000000 <.pdr>:
   0:	9fc00144 	0x9fc00144
	...
  20:	9fc00000 	0x9fc00000
	...
  40:	80000000 	lb	zero,0(zero)
	...
  60:	80000200 	lb	zero,512(zero)
	...
  80:	80000200 	lb	zero,512(zero)
	...
  a0:	80000200 	lb	zero,512(zero)
	...
  c0:	80000200 	lb	zero,512(zero)
	...
  e0:	80000200 	lb	zero,512(zero)
	...
 100:	80000204 	lb	zero,516(zero)
 104:	c0000000 	ll	zero,0(zero)
 108:	fffffffc 	sdc3	$31,-4(ra)
	...
 114:	00000028 	0x28
 118:	0000001e 	0x1e
 11c:	0000001f 	0x1f
 120:	80000398 	lb	zero,920(zero)
 124:	40000000 	mfc0	zero,c0_index
 128:	fffffffc 	sdc3	$31,-4(ra)
	...
 134:	00000018 	mult	zero,zero
 138:	0000001e 	0x1e
 13c:	0000001f 	0x1f
 140:	800004a4 	lb	zero,1188(zero)
 144:	40000000 	mfc0	zero,c0_index
 148:	fffffffc 	sdc3	$31,-4(ra)
	...
 154:	00000008 	jr	zero
 158:	0000001e 	0x1e
 15c:	0000001f 	0x1f
 160:	800004cc 	lb	zero,1228(zero)
	...
 178:	0000001d 	0x1d
 17c:	0000001f 	0x1f
 180:	800004d4 	lb	zero,1236(zero)
	...
 198:	0000001d 	0x1d
 19c:	0000001f 	0x1f
 1a0:	800004dc 	lb	zero,1244(zero)
	...
 1b8:	0000001d 	0x1d
 1bc:	0000001f 	0x1f
 1c0:	800004e4 	lb	zero,1252(zero)
	...
 1d8:	0000001d 	0x1d
 1dc:	0000001f 	0x1f
 1e0:	800004ec 	lb	zero,1260(zero)
	...
 1f8:	0000001d 	0x1d
 1fc:	0000001f 	0x1f
 200:	8000056c 	lb	zero,1388(zero)
	...
 218:	0000001d 	0x1d
 21c:	0000001f 	0x1f
 220:	80000634 	lb	zero,1588(zero)
	...
 234:	00000008 	jr	zero
 238:	0000001d 	0x1d
 23c:	0000001f 	0x1f
 240:	80000714 	lb	zero,1812(zero)
	...
 258:	0000001d 	0x1d
 25c:	0000001f 	0x1f
 260:	8000071c 	lb	zero,1820(zero)
	...
 278:	0000001d 	0x1d
 27c:	0000001f 	0x1f
 280:	80000744 	lb	zero,1860(zero)
 284:	801f0000 	lb	ra,0(zero)
 288:	fffffffc 	sdc3	$31,-4(ra)
	...
 294:	00000028 	0x28
 298:	0000001d 	0x1d
 29c:	0000001f 	0x1f
 2a0:	800008b0 	lb	zero,2224(zero)
 2a4:	80ff0000 	lb	ra,0(a3)
 2a8:	fffffffc 	sdc3	$31,-4(ra)
	...
 2b4:	00000050 	0x50
 2b8:	0000001d 	0x1d
 2bc:	0000001f 	0x1f
 2c0:	80000c74 	lb	zero,3188(zero)
 2c4:	c0ff0000 	ll	ra,0(a3)
 2c8:	fffffffc 	sdc3	$31,-4(ra)
	...
 2d4:	00000058 	0x58
 2d8:	0000001d 	0x1d
 2dc:	0000001f 	0x1f
 2e0:	800010c0 	lb	zero,4288(zero)
 2e4:	80000000 	lb	zero,0(zero)
 2e8:	fffffffc 	sdc3	$31,-4(ra)
	...
 2f4:	00000028 	0x28
 2f8:	0000001d 	0x1d
 2fc:	0000001f 	0x1f
 300:	80001108 	lb	zero,4360(zero)
	...
 318:	0000001d 	0x1d
 31c:	0000001f 	0x1f
 320:	80001110 	lb	zero,4368(zero)
 324:	80000000 	lb	zero,0(zero)
 328:	fffffffc 	sdc3	$31,-4(ra)
	...
 334:	00000020 	add	zero,zero,zero
 338:	0000001d 	0x1d
 33c:	0000001f 	0x1f

Disassembly of section .gnu.attributes:

00000000 <.gnu.attributes>:
   0:	00000f41 	0xf41
   4:	756e6700 	jalx	5b99c00 <__memory_size+0x5b7a400>
   8:	00070100 	sll	zero,a3,0x4
   c:	03040000 	0x3040000

Disassembly of section .comment:

00000000 <.comment>:
   0:	3a434347 	xori	v1,s2,0x4347
   4:	6f432820 	0x6f432820
   8:	63736564 	0x63736564
   c:	20657061 	addi	a1,v1,28769
  10:	20554e47 	addi	s5,v0,20039
  14:	6c6f6f54 	0x6c6f6f54
  18:	30322073 	andi	s2,at,0x2073
  1c:	302e3631 	andi	t6,at,0x3631
  20:	33302d35 	andi	s0,t9,0x2d35
  24:	726f6620 	0x726f6620
  28:	50494d20 	beql	v0,t1,134ac <__isr_vec_space+0x1348c>
  2c:	544d2053 	bnel	v0,t5,817c <__isr_vec_space+0x815c>
  30:	61422049 	0x61422049
  34:	4d206572 	0x4d206572
  38:	6c617465 	0x6c617465
  3c:	2e342029 	sltiu	s4,s1,8233
  40:	00322e39 	0x322e39
  44:	3a434347 	xori	v1,s2,0x4347
  48:	6f432820 	0x6f432820
  4c:	63736564 	0x63736564
  50:	20657061 	addi	a1,v1,28769
  54:	20554e47 	addi	s5,v0,20039
  58:	6c6f6f54 	0x6c6f6f54
  5c:	30322073 	andi	s2,at,0x2073
  60:	302e3631 	andi	t6,at,0x3631
  64:	31302d35 	andi	s0,t1,0x2d35
  68:	726f6620 	0x726f6620
  6c:	50494d20 	beql	v0,t1,134f0 <__isr_vec_space+0x134d0>
  70:	544d2053 	bnel	v0,t5,81c0 <__isr_vec_space+0x81a0>
  74:	61422049 	0x61422049
  78:	4d206572 	0x4d206572
  7c:	6c617465 	0x6c617465
  80:	2e342029 	sltiu	s4,s1,8233
  84:	00322e39 	0x322e39
