	.section .mdebug.abi32
	.previous
	.nan	legacy
	.module	softfloat
	.module	oddspreg
	.text
.Ltext0:
	.cfi_sections	.debug_frame
	.globl	__addsf3
	.globl	__mulsf3
	.globl	__subsf3
	.globl	__lesf2
	.globl	__ltsf2
	.align	2
	.globl	main
.LFB0 = .
	.file 1 "main.c"
	.loc 1 14 0
	.cfi_startproc
	.set	nomips16
	.set	nomicromips
	.ent	main
	.type	main, @function
main:
	.frame	$sp,48,$31		# vars= 0, regs= 8/0, args= 16, gp= 0
	.mask	0x807f0000,-4
	.fmask	0x00000000,0
	.set	noreorder
	.set	nomacro
	addiu	$sp,$sp,-48
	.cfi_def_cfa_offset 48
	sw	$31,44($sp)
	sw	$22,40($sp)
	sw	$21,36($sp)
	sw	$20,32($sp)
	sw	$19,28($sp)
	sw	$18,24($sp)
	sw	$17,20($sp)
	sw	$16,16($sp)
	.cfi_offset 31, -4
	.cfi_offset 22, -8
	.cfi_offset 21, -12
	.cfi_offset 20, -16
	.cfi_offset 19, -20
	.cfi_offset 18, -24
	.cfi_offset 17, -28
	.cfi_offset 16, -32
.LVL0 = .
	.loc 1 19 0
	li	$2,-1082130432			# 0xffffffffbf800000
	sw	$0,12($2)
	.loc 1 20 0
	sw	$0,16($2)
	.loc 1 17 0
	lw	$17,%gp_rel(.LC0)($28)
	lw	$19,%gp_rel(.LC1)($28)
	.loc 1 25 0
	lw	$22,%gp_rel(.LC2)($28)
	.loc 1 28 0
	lw	$21,%gp_rel(.LC3)($28)
	lw	$20,%gp_rel(.LC4)($28)
.LVL1 = .
.L6:
.L3:
	.loc 1 25 0
	move	$4,$19
	jal	__addsf3
	move	$5,$17

.LVL2 = .
	move	$4,$2
	jal	__mulsf3
	move	$5,$22

.LVL3 = .
	move	$16,$2
.LVL4 = .
	.loc 1 28 0
	move	$4,$2
	jal	__mulsf3
	move	$5,$2

.LVL5 = .
	move	$4,$2
	jal	__subsf3
	move	$5,$21

.LVL6 = .
	move	$18,$2
.LVL7 = .
	.loc 1 31 0
	ext	$4,$2,0,31
	jal	__subsf3
	move	$5,$20

.LVL8 = .
	move	$4,$2
	jal	__lesf2
	move	$5,$0

.LVL9 = .
	blez	$2,.L2
	move	$4,$17

.LVL10 = .
	.loc 1 34 0
	jal	__mulsf3
	move	$5,$17

.LVL11 = .
	move	$4,$2
	jal	__subsf3
	lw	$5,%gp_rel(.LC3)($28)

.LVL12 = .
	.loc 1 37 0
	move	$4,$2
	jal	__mulsf3
	move	$5,$18

.LVL13 = .
	move	$4,$2
	jal	__ltsf2
	move	$5,$0

.LVL14 = .
	bltzl	$2,.L6
	move	$19,$16

.LVL15 = .
	.loc 1 25 0
	b	.L3
	move	$17,$16

.LVL16 = .
.L2:
	.loc 1 48 0
	move	$3,$16
.LVL17 = .
	.loc 1 51 0
	li	$2,-1082130432			# 0xffffffffbf800000
.L5:
	.loc 1 51 0 is_stmt 0 discriminator 1
	sw	$0,12($2)
	.loc 1 52 0 is_stmt 1 discriminator 1
	sw	$3,16($2)
	.loc 1 53 0 discriminator 1
	b	.L5
	nop

	.set	macro
	.set	reorder
	.end	main
	.cfi_endproc
.LFE0:
	.size	main, .-main
	.section	.sdata,"aw",@progbits
	.align	2
.LC0:
	.word	1075838976
	.align	2
.LC1:
	.word	1067450368
	.align	2
.LC2:
	.word	1056964608
	.align	2
.LC3:
	.word	1073741824
	.align	2
.LC4:
	.word	1008981770
	.text
.Letext0: