	.section .mdebug.abi32
	.previous
	.nan	legacy
	.module	softfloat
	.module	oddspreg
	.text
.Ltext0:
	.cfi_sections	.debug_frame
	.align	2
	.globl	writeValTo7Segs
.LFB1 = .
	.file 1 "main.c"
	.loc 1 179 0
	.cfi_startproc
	.set	nomips16
	.set	nomicromips
	.ent	writeValTo7Segs
	.type	writeValTo7Segs, @function
writeValTo7Segs:
	.frame	$sp,16,$31		# vars= 16, regs= 0/0, args= 0, gp= 0
	.mask	0x00000000,0
	.fmask	0x00000000,0
	.set	noreorder
	.set	nomacro
.LVL0 = .
	addiu	$sp,$sp,-16
	.cfi_def_cfa_offset 16
	.loc 1 181 0
	sw	$0,4($sp)
	.loc 1 182 0
	sw	$0,8($sp)
	.loc 1 185 0
	sw	$0,4($sp)
	beq	$4,$0,.L2
	nop

	lw	$2,4($sp)
	slt	$2,$2,8
	beq	$2,$0,.L2
	nop

	.loc 1 186 0 discriminator 4
	li	$6,-859045888			# 0xffffffffcccc0000
	ori	$6,$6,0xcccd
	.loc 1 189 0 discriminator 4
	li	$7,1			# 0x1
	.loc 1 186 0 discriminator 4
	multu	$4,$6
.L7:
	mfhi	$5
	srl	$2,$5,3
	sll	$3,$2,1
	sll	$2,$2,3
	addu	$2,$3,$2
	subu	$2,$4,$2
	sw	$2,0($sp)
	.loc 1 187 0 discriminator 4
	lw	$3,0($sp)
	lw	$2,4($sp)
	lw	$4,8($sp)
.LVL1 = .
	sll	$2,$2,2
	sll	$2,$3,$2
	or	$2,$2,$4
	sw	$2,8($sp)
	.loc 1 188 0 discriminator 4
	srl	$4,$5,3
.LVL2 = .
	.loc 1 189 0 discriminator 4
	lw	$2,4($sp)
	lw	$3,12($sp)
	sll	$2,$7,$2
	or	$2,$2,$3
	sw	$2,12($sp)
	.loc 1 185 0 discriminator 4
	lw	$2,4($sp)
	addiu	$2,$2,1
	sw	$2,4($sp)
	beq	$4,$0,.L2
	nop

	.loc 1 185 0 is_stmt 0 discriminator 3
	lw	$2,4($sp)
	slt	$2,$2,8
	bne	$2,$0,.L7
	multu	$4,$6

.L2:
	.loc 1 192 0 is_stmt 1
	lw	$2,8($sp)
	li	$3,-1082130432			# 0xffffffffbf800000
	sw	$2,16($3)
	.loc 1 193 0
	lw	$2,12($sp)
	nor	$2,$0,$2
	sw	$2,12($3)
	.loc 1 196 0
	jr	$31
	addiu	$sp,$sp,16

	.cfi_def_cfa_offset 0
	.set	macro
	.set	reorder
	.end	writeValTo7Segs
	.cfi_endproc
.LFE1:
	.size	writeValTo7Segs, .-writeValTo7Segs
	.align	2
	.globl	main
.LFB0 = .
	.loc 1 43 0
	.cfi_startproc
	.set	nomips16
	.set	nomicromips
	.ent	main
	.type	main, @function
main:
	.frame	$sp,48,$31		# vars= 0, regs= 7/0, args= 16, gp= 0
	.mask	0x803f0000,-4
	.fmask	0x00000000,0
	addiu	$sp,$sp,-48
	.cfi_def_cfa_offset 48
	sw	$31,44($sp)
	sw	$21,40($sp)
	sw	$20,36($sp)
	sw	$19,32($sp)
	sw	$18,28($sp)
	sw	$17,24($sp)
	sw	$16,20($sp)
	.cfi_offset 31, -4
	.cfi_offset 21, -8
	.cfi_offset 20, -12
	.cfi_offset 19, -16
	.cfi_offset 18, -20
	.cfi_offset 17, -24
	.cfi_offset 16, -28
	.loc 1 49 0
 #APP
 # 49 "main.c" 1
	   li $t1, 4096;   li $t2, 0;   lui $t3, 0x0;loop1:   cache 0x01, 0($t3);   addiu $t3, $t3, 16;   addiu $t2, $t2, 1;   blt $t2, $t1, loop1;
 # 0 "" 2
 #NO_APP
.LBB2 = .
	.loc 1 63 0
	li	$2,322			# 0x142
 #APP
 # 63 "main.c" 1
	.set push 
.set noreorder
mtc0 $2,$25,0
ehb
.set pop
 # 0 "" 2
 #NO_APP
	li	$2,354			# 0x162
 #APP
 # 63 "main.c" 1
	.set push 
.set noreorder
mtc0 $2,$25,2
ehb
.set pop
 # 0 "" 2
 # 63 "main.c" 1
	.set push 
.set noreorder
mtc0 $0,$25,1
ehb
.set pop
 # 0 "" 2
 # 63 "main.c" 1
	.set push 
.set noreorder
mtc0 $0,$25,3
ehb
.set pop
 # 0 "" 2
 #NO_APP
.LBE2 = .
	.loc 1 65 0
 #APP
 # 65 "main.c" 1
	   li $t1, 4;   li $t2, 0;   nop;   lui $t4, 0x8000;   addiu $t4, $t4, A;   loop:       lw  $t7, 0($t4);       lw  $t7, 16($t4);       nop;       nop;       nop;       nop;       nop;       nop;       nop;       nop;       lw  $t7, 2048($t4);       lw  $t7, 2064($t4);       nop;       nop;       nop;       nop;       nop;       nop;       nop;       nop;       lw  $t7, 0($t4);       lw  $t7, 16($t4);       nop;       nop;       nop;       nop;       nop;       nop;       nop;       nop;       lw  $t7, 4096($t4);       lw  $t7, 4112($t4);       nop;       nop;       nop;       nop;       nop;       nop;       nop;       nop;       lw  $t7, 2048($t4);       lw  $t7, 2064($t4);       nop;       nop;       nop;       nop;       nop;       nop;       nop;       nop;       lw  $t7, 4096($t4);       lw  $t7, 4112($t4);       nop;       nop;       nop;       nop;       nop;       nop;       nop;       nop;       addiu $t2, $t2, 1;       blt $t2, $t1, loop;   nop;
 # 0 "" 2
 #NO_APP
.LBB3 = .
.LBB4 = .
	.loc 1 140 0
 #APP
 # 140 "main.c" 1
	mfc0 $21,$25,1
 # 0 "" 2
.LVL3 = .
 #NO_APP
.LBE4 = .
.LBB5 = .
 #APP
 # 140 "main.c" 1
	mfc0 $20,$25,3
 # 0 "" 2
.LVL4 = .
 #NO_APP
.LBE5 = .
 #APP
 # 140 "main.c" 1
	.set push 
.set noreorder
mtc0 $0,$25,0
ehb
.set pop
 # 0 "" 2
 # 140 "main.c" 1
	.set push 
.set noreorder
mtc0 $0,$25,2
ehb
.set pop
 # 0 "" 2
 # 140 "main.c" 1
	.set push 
.set noreorder
mtc0 $0,$25,1
ehb
.set pop
 # 0 "" 2
 # 140 "main.c" 1
	.set push 
.set noreorder
mtc0 $0,$25,3
ehb
.set pop
 # 0 "" 2
 #NO_APP
.LBE3 = .
	.loc 1 146 0
	li	$16,-1082130432			# 0xffffffffbf800000
	lui	$17,%hi(.L12)
	addiu	$17,$17,%lo(.L12)
	.loc 1 163 0
	li	$18,1			# 0x1
	.loc 1 159 0
	li	$19,7			# 0x7
.L9:
	.loc 1 146 0
	lw	$2,4($16)
	sltu	$3,$2,6
	.set	noreorder
	.set	nomacro
	beq	$3,$0,.L10
	sll	$2,$2,2
	.set	macro
	.set	reorder

	addu	$2,$17,$2
	lw	$2,0($2)
	jr	$2
	.rdata
	.align	2
	.align	2
.L12:
	.word	.L11
	.word	.L13
	.word	.L14
	.word	.L15
	.word	.L16
	.word	.L17
	.text
.L11:
	.loc 1 148 0
	.set	noreorder
	.set	nomacro
	jal	writeValTo7Segs
	move	$4,$21
	.set	macro
	.set	reorder

.LVL5 = .
	.loc 1 149 0
	b	.L9
.L13:
	.loc 1 151 0
	.set	noreorder
	.set	nomacro
	jal	writeValTo7Segs
	move	$4,$20
	.set	macro
	.set	reorder

.LVL6 = .
	.loc 1 152 0
	b	.L9
.L14:
.LBB6 = .
	.loc 1 155 0
 #APP
 # 155 "main.c" 1
	mfc0 $4,$16,1
 # 0 "" 2
.LVL7 = .
 #NO_APP
.LBE6 = .
	ext	$4,$4,7,3
.LVL8 = .
	.set	noreorder
	.set	nomacro
	jal	writeValTo7Segs
	addiu	$4,$4,1
	.set	macro
	.set	reorder

.LVL9 = .
	.loc 1 156 0
	b	.L9
.L15:
.LBB7 = .
	.loc 1 159 0
 #APP
 # 159 "main.c" 1
	mfc0 $2,$16,1
 # 0 "" 2
.LVL10 = .
 #NO_APP
.LBE7 = .
	ext	$2,$2,13,3
.LVL11 = .
	.set	noreorder
	.set	nomacro
	beql	$2,$19,.L21
	li	$4,32			# 0x20
	.set	macro
	.set	reorder

.LBB8 = .
	.loc 1 159 0 is_stmt 0 discriminator 1
 #APP
 # 159 "main.c" 1
	mfc0 $4,$16,1
 # 0 "" 2
.LVL12 = .
 #NO_APP
.LBE8 = .
	ext	$4,$4,13,3
.LVL13 = .
	addiu	$4,$4,6
	sll	$4,$18,$4
.L21:
	.loc 1 159 0 discriminator 4
	jal	writeValTo7Segs
.LVL14 = .
	.loc 1 160 0 is_stmt 1 discriminator 4
	b	.L9
.L16:
.LBB9 = .
	.loc 1 163 0
 #APP
 # 163 "main.c" 1
	mfc0 $2,$16,1
 # 0 "" 2
.LVL15 = .
 #NO_APP
.LBE9 = .
	ext	$2,$2,10,3
.LVL16 = .
	.set	noreorder
	.set	nomacro
	beq	$2,$0,.L20
	move	$4,$0
	.set	macro
	.set	reorder

.LBB10 = .
	.loc 1 163 0 is_stmt 0 discriminator 1
 #APP
 # 163 "main.c" 1
	mfc0 $4,$16,1
 # 0 "" 2
.LVL17 = .
 #NO_APP
.LBE10 = .
	ext	$4,$4,10,3
.LVL18 = .
	addiu	$4,$4,1
	sll	$4,$18,$4
.L20:
	.loc 1 163 0 discriminator 4
	jal	writeValTo7Segs
.LVL19 = .
	.loc 1 164 0 is_stmt 1 discriminator 4
	b	.L9
.L17:
.LBB11 = .
	.loc 1 167 0
 #APP
 # 167 "main.c" 1
	mfc0 $4,$16,0
 # 0 "" 2
.LVL20 = .
 #NO_APP
.LBE11 = .
	.set	noreorder
	.set	nomacro
	jal	writeValTo7Segs
	andi	$4,$4,0x7
	.set	macro
	.set	reorder

.LVL21 = .
	.loc 1 168 0
	b	.L9
.L10:
	.loc 1 170 0
	.set	noreorder
	.set	nomacro
	jal	writeValTo7Segs
	move	$4,$0
	.set	macro
	.set	reorder

.LVL22 = .
	b	.L9
	.end	main
	.cfi_endproc
.LFE0:
	.size	main, .-main
	.align	2
	.globl	_mips_handle_exception
.LFB2 = .
	.loc 1 200 0
	.cfi_startproc
	.set	nomips16
	.set	nomicromips
	.ent	_mips_handle_exception
	.type	_mips_handle_exception, @function
_mips_handle_exception:
	.frame	$sp,0,$31		# vars= 0, regs= 0/0, args= 0, gp= 0
	.mask	0x00000000,0
	.fmask	0x00000000,0
	.set	noreorder
	.set	nomacro
.LVL23 = .
	.loc 1 201 0
	li	$3,32769			# 0x8001
	li	$2,-1082130432			# 0xffffffffbf800000
	sw	$3,0($2)
.L25:
	.loc 1 202 0 discriminator 1
	b	.L25
	nop

	.set	macro
	.set	reorder
	.end	_mips_handle_exception
	.cfi_endproc
.LFE2:
	.size	_mips_handle_exception, .-_mips_handle_exception

	.comm	A,4400,4
.Letext0:
	.file 2 "c:\\progra~1\\imagin~1\\toolch~1\\mips-mti-elf\\2016.05-03\\mips-mti-elf\\include\\mips\\m32c0.h"