
program.elf:     file format elf32-tradlittlemips


Disassembly of section .bootrom:

9fc00000 <__reset_vector>:
9fc00000:	40804800 	mtc0	zero,c0_count

9fc00004 <init_cp0>:
9fc00004:	3c030040 	lui	v1,0x40
9fc00008:	34630004 	ori	v1,v1,0x4
9fc0000c:	40836000 	mtc0	v1,c0_status
9fc00010:	40806800 	mtc0	zero,c0_cause
9fc00014:	40805800 	mtc0	zero,c0_compare

9fc00018 <init_tlb>:
9fc00018:	40038000 	mfc0	v1,c0_config
9fc0001c:	7c6311c0 	ext	v1,v1,0x7,0x3
9fc00020:	24070001 	li	a3,1
9fc00024:	1467000e 	bne	v1,a3,9fc00060 <init_icache>
9fc00028:	40028001 	mfc0	v0,c0_config1
9fc0002c:	7c432e40 	ext	v1,v0,0x19,0x6
9fc00030:	40801000 	mtc0	zero,c0_entrylo0
9fc00034:	40801800 	mtc0	zero,c0_entrylo1
9fc00038:	40802800 	mtc0	zero,c0_pagemask
9fc0003c:	40803000 	mtc0	zero,c0_wired
9fc00040:	3c048000 	lui	a0,0x8000

9fc00044 <next_tlb_entry>:
9fc00044:	40830000 	mtc0	v1,c0_index
9fc00048:	40845000 	mtc0	a0,c0_entryhi
9fc0004c:	000000c0 	ehb
9fc00050:	42000002 	tlbwi
9fc00054:	20844000 	addi	a0,a0,16384
9fc00058:	1460fffa 	bnez	v1,9fc00044 <next_tlb_entry>
9fc0005c:	2063ffff 	addi	v1,v1,-1

9fc00060 <init_icache>:
9fc00060:	40028001 	mfc0	v0,c0_config1
9fc00064:	7c4314c0 	ext	v1,v0,0x13,0x3
9fc00068:	10600010 	beqz	v1,9fc000ac <done_icache>
9fc0006c:	00000000 	nop
9fc00070:	24060002 	li	a2,2
9fc00074:	00661804 	sllv	v1,a2,v1
9fc00078:	7c441580 	ext	a0,v0,0x16,0x3
9fc0007c:	24060040 	li	a2,64
9fc00080:	00862004 	sllv	a0,a2,a0
9fc00084:	7c451400 	ext	a1,v0,0x10,0x3
9fc00088:	20a50001 	addi	a1,a1,1
9fc0008c:	70852002 	mul	a0,a0,a1
9fc00090:	3c068000 	lui	a2,0x8000
9fc00094:	4080e000 	mtc0	zero,c0_taglo
9fc00098:	00803825 	move	a3,a0

9fc0009c <next_icache_tag>:
9fc0009c:	bcc80000 	cache	0x8,0(a2)
9fc000a0:	20e7ffff 	addi	a3,a3,-1
9fc000a4:	14e0fffd 	bnez	a3,9fc0009c <next_icache_tag>
9fc000a8:	00c33020 	add	a2,a2,v1

9fc000ac <done_icache>:
9fc000ac:	40028000 	mfc0	v0,c0_config
9fc000b0:	24030003 	li	v1,3
9fc000b4:	7c621004 	ins	v0,v1,0x0,0x3
9fc000b8:	40828000 	mtc0	v0,c0_config
9fc000bc:	3c069fc0 	lui	a2,0x9fc0
9fc000c0:	24c600cc 	addiu	a2,a2,204
9fc000c4:	00c00008 	jr	a2
9fc000c8:	000000c0 	ehb

9fc000cc <init_dcache>:
9fc000cc:	40028001 	mfc0	v0,c0_config1
9fc000d0:	7c431280 	ext	v1,v0,0xa,0x3
9fc000d4:	10600011 	beqz	v1,9fc0011c <done_dcache>
9fc000d8:	00000000 	nop
9fc000dc:	24060002 	li	a2,2
9fc000e0:	00661804 	sllv	v1,a2,v1
9fc000e4:	7c441340 	ext	a0,v0,0xd,0x3
9fc000e8:	24060040 	li	a2,64
9fc000ec:	00862004 	sllv	a0,a2,a0
9fc000f0:	7c4511c0 	ext	a1,v0,0x7,0x3
9fc000f4:	20a50001 	addi	a1,a1,1
9fc000f8:	70852002 	mul	a0,a0,a1
9fc000fc:	3c068000 	lui	a2,0x8000
9fc00100:	4080e000 	mtc0	zero,c0_taglo
9fc00104:	4080e002 	mtc0	zero,c0_taglo1
9fc00108:	00803825 	move	a3,a0

9fc0010c <next_dcache_tag>:
9fc0010c:	bcc90000 	cache	0x9,0(a2)
9fc00110:	20e7ffff 	addi	a3,a3,-1
9fc00114:	14e0fffd 	bnez	a3,9fc0010c <next_dcache_tag>
9fc00118:	00c33020 	add	a2,a2,v1

9fc0011c <done_dcache>:
9fc0011c:	3c1f9fc0 	lui	ra,0x9fc0
9fc00120:	27ff013c 	addiu	ra,ra,316
9fc00124:	00002025 	move	a0,zero
9fc00128:	3c029fc0 	lui	v0,0x9fc0
9fc0012c:	24420144 	addiu	v0,v0,324
9fc00130:	4082f000 	mtc0	v0,c0_errorepc
9fc00134:	000000c0 	ehb
9fc00138:	42000018 	eret

9fc0013c <all_done>:
9fc0013c:	1000ffff 	b	9fc0013c <all_done>
9fc00140:	00000000 	nop

9fc00144 <_start>:
9fc00144:	03e08025 	move	s0,ra
9fc00148:	3c1c8001 	lui	gp,0x8001
9fc0014c:	279c8800 	addiu	gp,gp,-30720
9fc00150:	3c1d8004 	lui	sp,0x8004
9fc00154:	27bd0000 	addiu	sp,sp,0
9fc00158:	3c028000 	lui	v0,0x8000
9fc0015c:	24420800 	addiu	v0,v0,2048
9fc00160:	3c038000 	lui	v1,0x8000
9fc00164:	24633800 	addiu	v1,v1,14336
9fc00168:	10430005 	beq	v0,v1,9fc00180 <_start+0x3c>
9fc0016c:	00000000 	nop
9fc00170:	24420004 	addiu	v0,v0,4
9fc00174:	ac40fffc 	sw	zero,-4(v0)
9fc00178:	1443fffd 	bne	v0,v1,9fc00170 <_start+0x2c>
9fc0017c:	00000000 	nop
9fc00180:	24040000 	li	a0,0
9fc00184:	27bdfff0 	addiu	sp,sp,-16
9fc00188:	40026000 	mfc0	v0,c0_status
9fc0018c:	7c02b584 	ins	v0,zero,0x16,0x1
9fc00190:	40826000 	mtc0	v0,c0_status
9fc00194:	000000c0 	ehb
9fc00198:	3c088000 	lui	t0,0x8000
9fc0019c:	25080204 	addiu	t0,t0,516
9fc001a0:	0100f809 	jalr	t0
9fc001a4:	00000000 	nop
9fc001a8:	0200f825 	move	ra,s0
9fc001ac:	03e00008 	jr	ra
9fc001b0:	00000000 	nop
9fc001b4:	00000000 	nop

Disassembly of section .exception_vector:

80000000 <__exception_entry>:
80000000:	3c1b0000 	lui	k1,0x0
80000004:	277b0000 	addiu	k1,k1,0
80000008:	1360fffd 	beqz	k1,80000000 <__exception_entry>
8000000c:	00000000 	nop
80000010:	03600008 	jr	k1
80000014:	00000000 	nop
	...

80000080 <__xtlb_refill_loop>:
80000080:	3c1b0000 	lui	k1,0x0
80000084:	277b0000 	addiu	k1,k1,0
80000088:	1360fffd 	beqz	k1,80000080 <__xtlb_refill_loop>
8000008c:	00000000 	nop
80000090:	03600008 	jr	k1
80000094:	00000000 	nop
	...

80000100 <__cache_error_loop>:
80000100:	3c1b0000 	lui	k1,0x0
80000104:	277b0000 	addiu	k1,k1,0
80000108:	1360fffd 	beqz	k1,80000100 <__cache_error_loop>
8000010c:	00000000 	nop
80000110:	03600008 	jr	k1
80000114:	00000000 	nop
	...

80000180 <__general_exception_loop>:
80000180:	3c1b0000 	lui	k1,0x0
80000184:	277b0000 	addiu	k1,k1,0
80000188:	1360fffd 	beqz	k1,80000180 <__general_exception_loop>
8000018c:	00000000 	nop
80000190:	03600008 	jr	k1
80000194:	00000000 	nop
	...

Disassembly of section .text:

80000200 <__exception_handle>:
80000200:	00000000 	nop

80000204 <main>:
80000204:	27bdffc8 	addiu	sp,sp,-56
80000208:	afbf0034 	sw	ra,52(sp)
8000020c:	afbe0030 	sw	s8,48(sp)
80000210:	03a0f025 	move	s8,sp
80000214:	afc00010 	sw	zero,16(s8)
80000218:	1000002c 	b	800002cc <main+0xc8>
8000021c:	00000000 	nop
80000220:	afc00014 	sw	zero,20(s8)
80000224:	10000022 	b	800002b0 <main+0xac>
80000228:	00000000 	nop
8000022c:	3c028000 	lui	v0,0x8000
80000230:	8fc30010 	lw	v1,16(s8)
80000234:	00032140 	sll	a0,v1,0x5
80000238:	8fc30014 	lw	v1,20(s8)
8000023c:	00831821 	addu	v1,a0,v1
80000240:	00031880 	sll	v1,v1,0x2
80000244:	24420800 	addiu	v0,v0,2048
80000248:	00621021 	addu	v0,v1,v0
8000024c:	24030001 	li	v1,1
80000250:	ac430000 	sw	v1,0(v0)
80000254:	3c028000 	lui	v0,0x8000
80000258:	8fc30010 	lw	v1,16(s8)
8000025c:	00032140 	sll	a0,v1,0x5
80000260:	8fc30014 	lw	v1,20(s8)
80000264:	00831821 	addu	v1,a0,v1
80000268:	00031880 	sll	v1,v1,0x2
8000026c:	24422800 	addiu	v0,v0,10240
80000270:	00621021 	addu	v0,v1,v0
80000274:	24030001 	li	v1,1
80000278:	ac430000 	sw	v1,0(v0)
8000027c:	3c028000 	lui	v0,0x8000
80000280:	8fc30010 	lw	v1,16(s8)
80000284:	00032140 	sll	a0,v1,0x5
80000288:	8fc30014 	lw	v1,20(s8)
8000028c:	00831821 	addu	v1,a0,v1
80000290:	00031880 	sll	v1,v1,0x2
80000294:	24421800 	addiu	v0,v0,6144
80000298:	00621021 	addu	v0,v1,v0
8000029c:	24030001 	li	v1,1
800002a0:	ac430000 	sw	v1,0(v0)
800002a4:	8fc20014 	lw	v0,20(s8)
800002a8:	24420001 	addiu	v0,v0,1
800002ac:	afc20014 	sw	v0,20(s8)
800002b0:	8fc20014 	lw	v0,20(s8)
800002b4:	28420020 	slti	v0,v0,32
800002b8:	1440ffdc 	bnez	v0,8000022c <main+0x28>
800002bc:	00000000 	nop
800002c0:	8fc20010 	lw	v0,16(s8)
800002c4:	24420001 	addiu	v0,v0,1
800002c8:	afc20010 	sw	v0,16(s8)
800002cc:	8fc20010 	lw	v0,16(s8)
800002d0:	28420020 	slti	v0,v0,32
800002d4:	1440ffd2 	bnez	v0,80000220 <main+0x1c>
800002d8:	00000000 	nop
800002dc:	24091000 	li	t1,4096
800002e0:	240a0000 	li	t2,0
800002e4:	3c0b0000 	lui	t3,0x0

800002e8 <loop1>:
800002e8:	bd610000 	cache	0x1,0(t3)
800002ec:	256b0010 	addiu	t3,t3,16
800002f0:	254a0001 	addiu	t2,t2,1
800002f4:	0149082a 	slt	at,t2,t1
800002f8:	1420fffb 	bnez	at,800002e8 <loop1>
800002fc:	00000000 	nop
80000300:	24020142 	li	v0,322
80000304:	4082c800 	mtc0	v0,c0_perfcnt
80000308:	000000c0 	ehb
8000030c:	24020162 	li	v0,354
80000310:	4082c802 	mtc0	v0,c0_perfcnt,2
80000314:	000000c0 	ehb
80000318:	4080c801 	mtc0	zero,c0_perfcnt,1
8000031c:	000000c0 	ehb
80000320:	4080c803 	mtc0	zero,c0_perfcnt,3
80000324:	000000c0 	ehb
80000328:	afc00020 	sw	zero,32(s8)
8000032c:	10000064 	b	800004c0 <loop1+0x1d8>
80000330:	00000000 	nop
80000334:	afc00024 	sw	zero,36(s8)
80000338:	1000005a 	b	800004a4 <loop1+0x1bc>
8000033c:	00000000 	nop
80000340:	afc00010 	sw	zero,16(s8)
80000344:	10000050 	b	80000488 <loop1+0x1a0>
80000348:	00000000 	nop
8000034c:	8fc20020 	lw	v0,32(s8)
80000350:	afc20014 	sw	v0,20(s8)
80000354:	10000040 	b	80000458 <loop1+0x170>
80000358:	00000000 	nop
8000035c:	afc0001c 	sw	zero,28(s8)
80000360:	8fc20024 	lw	v0,36(s8)
80000364:	afc20018 	sw	v0,24(s8)
80000368:	1000001b 	b	800003d8 <loop1+0xf0>
8000036c:	00000000 	nop
80000370:	3c028000 	lui	v0,0x8000
80000374:	8fc30010 	lw	v1,16(s8)
80000378:	00032140 	sll	a0,v1,0x5
8000037c:	8fc30018 	lw	v1,24(s8)
80000380:	00831821 	addu	v1,a0,v1
80000384:	00031880 	sll	v1,v1,0x2
80000388:	24422800 	addiu	v0,v0,10240
8000038c:	00621021 	addu	v0,v1,v0
80000390:	8c430000 	lw	v1,0(v0)
80000394:	3c028000 	lui	v0,0x8000
80000398:	8fc40018 	lw	a0,24(s8)
8000039c:	00042940 	sll	a1,a0,0x5
800003a0:	8fc40014 	lw	a0,20(s8)
800003a4:	00a42021 	addu	a0,a1,a0
800003a8:	00042080 	sll	a0,a0,0x2
800003ac:	24421800 	addiu	v0,v0,6144
800003b0:	00821021 	addu	v0,a0,v0
800003b4:	8c420000 	lw	v0,0(v0)
800003b8:	00620018 	mult	v1,v0
800003bc:	8fc2001c 	lw	v0,28(s8)
800003c0:	00001812 	mflo	v1
800003c4:	00431021 	addu	v0,v0,v1
800003c8:	afc2001c 	sw	v0,28(s8)
800003cc:	8fc20018 	lw	v0,24(s8)
800003d0:	24420001 	addiu	v0,v0,1
800003d4:	afc20018 	sw	v0,24(s8)
800003d8:	8fc20024 	lw	v0,36(s8)
800003dc:	24420010 	addiu	v0,v0,16
800003e0:	24030020 	li	v1,32
800003e4:	28440021 	slti	a0,v0,33
800003e8:	0044180b 	movn	v1,v0,a0
800003ec:	8fc20018 	lw	v0,24(s8)
800003f0:	0043102a 	slt	v0,v0,v1
800003f4:	1440ffde 	bnez	v0,80000370 <loop1+0x88>
800003f8:	00000000 	nop
800003fc:	3c028000 	lui	v0,0x8000
80000400:	8fc30010 	lw	v1,16(s8)
80000404:	00032140 	sll	a0,v1,0x5
80000408:	8fc30014 	lw	v1,20(s8)
8000040c:	00831821 	addu	v1,a0,v1
80000410:	00031880 	sll	v1,v1,0x2
80000414:	24420800 	addiu	v0,v0,2048
80000418:	00621021 	addu	v0,v1,v0
8000041c:	8c430000 	lw	v1,0(v0)
80000420:	8fc2001c 	lw	v0,28(s8)
80000424:	00621821 	addu	v1,v1,v0
80000428:	3c028000 	lui	v0,0x8000
8000042c:	8fc40010 	lw	a0,16(s8)
80000430:	00042940 	sll	a1,a0,0x5
80000434:	8fc40014 	lw	a0,20(s8)
80000438:	00a42021 	addu	a0,a1,a0
8000043c:	00042080 	sll	a0,a0,0x2
80000440:	24420800 	addiu	v0,v0,2048
80000444:	00821021 	addu	v0,a0,v0
80000448:	ac430000 	sw	v1,0(v0)
8000044c:	8fc20014 	lw	v0,20(s8)
80000450:	24420001 	addiu	v0,v0,1
80000454:	afc20014 	sw	v0,20(s8)
80000458:	8fc20020 	lw	v0,32(s8)
8000045c:	24420010 	addiu	v0,v0,16
80000460:	24030020 	li	v1,32
80000464:	28440021 	slti	a0,v0,33
80000468:	0044180b 	movn	v1,v0,a0
8000046c:	8fc20014 	lw	v0,20(s8)
80000470:	0043102a 	slt	v0,v0,v1
80000474:	1440ffb9 	bnez	v0,8000035c <loop1+0x74>
80000478:	00000000 	nop
8000047c:	8fc20010 	lw	v0,16(s8)
80000480:	24420001 	addiu	v0,v0,1
80000484:	afc20010 	sw	v0,16(s8)
80000488:	8fc20010 	lw	v0,16(s8)
8000048c:	28420020 	slti	v0,v0,32
80000490:	1440ffae 	bnez	v0,8000034c <loop1+0x64>
80000494:	00000000 	nop
80000498:	8fc20024 	lw	v0,36(s8)
8000049c:	24420010 	addiu	v0,v0,16
800004a0:	afc20024 	sw	v0,36(s8)
800004a4:	8fc20024 	lw	v0,36(s8)
800004a8:	28420020 	slti	v0,v0,32
800004ac:	1440ffa4 	bnez	v0,80000340 <loop1+0x58>
800004b0:	00000000 	nop
800004b4:	8fc20020 	lw	v0,32(s8)
800004b8:	24420010 	addiu	v0,v0,16
800004bc:	afc20020 	sw	v0,32(s8)
800004c0:	8fc20020 	lw	v0,32(s8)
800004c4:	28420020 	slti	v0,v0,32
800004c8:	1440ff9a 	bnez	v0,80000334 <loop1+0x4c>
800004cc:	00000000 	nop
800004d0:	4002c801 	mfc0	v0,c0_perfcnt,1
800004d4:	0040f825 	move	ra,v0
800004d8:	03e01025 	move	v0,ra
800004dc:	afc20028 	sw	v0,40(s8)
800004e0:	4002c803 	mfc0	v0,c0_perfcnt,3
800004e4:	0040f825 	move	ra,v0
800004e8:	03e01025 	move	v0,ra
800004ec:	afc2002c 	sw	v0,44(s8)
800004f0:	4080c800 	mtc0	zero,c0_perfcnt
800004f4:	000000c0 	ehb
800004f8:	4080c802 	mtc0	zero,c0_perfcnt,2
800004fc:	000000c0 	ehb
80000500:	4080c801 	mtc0	zero,c0_perfcnt,1
80000504:	000000c0 	ehb
80000508:	4080c803 	mtc0	zero,c0_perfcnt,3
8000050c:	000000c0 	ehb
80000510:	3c02bf80 	lui	v0,0xbf80
80000514:	34420004 	ori	v0,v0,0x4
80000518:	8c420000 	lw	v0,0(v0)
8000051c:	2c430006 	sltiu	v1,v0,6
80000520:	10600059 	beqz	v1,80000688 <loop1+0x3a0>
80000524:	00000000 	nop
80000528:	00021880 	sll	v1,v0,0x2
8000052c:	3c028000 	lui	v0,0x8000
80000530:	244207e8 	addiu	v0,v0,2024
80000534:	00621021 	addu	v0,v1,v0
80000538:	8c420000 	lw	v0,0(v0)
8000053c:	00400008 	jr	v0
80000540:	00000000 	nop
80000544:	8fc20028 	lw	v0,40(s8)
80000548:	00402025 	move	a0,v0
8000054c:	0c0001a7 	jal	8000069c <writeValTo7Segs>
80000550:	00000000 	nop
80000554:	1000004f 	b	80000694 <loop1+0x3ac>
80000558:	00000000 	nop
8000055c:	8fc2002c 	lw	v0,44(s8)
80000560:	00402025 	move	a0,v0
80000564:	0c0001a7 	jal	8000069c <writeValTo7Segs>
80000568:	00000000 	nop
8000056c:	10000049 	b	80000694 <loop1+0x3ac>
80000570:	00000000 	nop
80000574:	40028001 	mfc0	v0,c0_config1
80000578:	0040f825 	move	ra,v0
8000057c:	03e01025 	move	v0,ra
80000580:	30420380 	andi	v0,v0,0x380
80000584:	000211c2 	srl	v0,v0,0x7
80000588:	24420001 	addiu	v0,v0,1
8000058c:	00402025 	move	a0,v0
80000590:	0c0001a7 	jal	8000069c <writeValTo7Segs>
80000594:	00000000 	nop
80000598:	1000003e 	b	80000694 <loop1+0x3ac>
8000059c:	00000000 	nop
800005a0:	40028001 	mfc0	v0,c0_config1
800005a4:	0040f825 	move	ra,v0
800005a8:	03e01025 	move	v0,ra
800005ac:	3042e000 	andi	v0,v0,0xe000
800005b0:	00021b42 	srl	v1,v0,0xd
800005b4:	24020007 	li	v0,7
800005b8:	1062000c 	beq	v1,v0,800005ec <loop1+0x304>
800005bc:	00000000 	nop
800005c0:	40028001 	mfc0	v0,c0_config1
800005c4:	0040f825 	move	ra,v0
800005c8:	03e01025 	move	v0,ra
800005cc:	3042e000 	andi	v0,v0,0xe000
800005d0:	00021342 	srl	v0,v0,0xd
800005d4:	24420006 	addiu	v0,v0,6
800005d8:	00401825 	move	v1,v0
800005dc:	24020001 	li	v0,1
800005e0:	00621004 	sllv	v0,v0,v1
800005e4:	10000002 	b	800005f0 <loop1+0x308>
800005e8:	00000000 	nop
800005ec:	24020020 	li	v0,32
800005f0:	00402025 	move	a0,v0
800005f4:	0c0001a7 	jal	8000069c <writeValTo7Segs>
800005f8:	00000000 	nop
800005fc:	10000025 	b	80000694 <loop1+0x3ac>
80000600:	00000000 	nop
80000604:	40028001 	mfc0	v0,c0_config1
80000608:	0040f825 	move	ra,v0
8000060c:	03e01025 	move	v0,ra
80000610:	30421c00 	andi	v0,v0,0x1c00
80000614:	00021282 	srl	v0,v0,0xa
80000618:	1040000c 	beqz	v0,8000064c <loop1+0x364>
8000061c:	00000000 	nop
80000620:	40028001 	mfc0	v0,c0_config1
80000624:	0040f825 	move	ra,v0
80000628:	03e01025 	move	v0,ra
8000062c:	30421c00 	andi	v0,v0,0x1c00
80000630:	00021282 	srl	v0,v0,0xa
80000634:	24420001 	addiu	v0,v0,1
80000638:	00401825 	move	v1,v0
8000063c:	24020001 	li	v0,1
80000640:	00621004 	sllv	v0,v0,v1
80000644:	10000002 	b	80000650 <loop1+0x368>
80000648:	00000000 	nop
8000064c:	00001025 	move	v0,zero
80000650:	00402025 	move	a0,v0
80000654:	0c0001a7 	jal	8000069c <writeValTo7Segs>
80000658:	00000000 	nop
8000065c:	1000000d 	b	80000694 <loop1+0x3ac>
80000660:	00000000 	nop
80000664:	40028000 	mfc0	v0,c0_config
80000668:	0040f825 	move	ra,v0
8000066c:	03e01025 	move	v0,ra
80000670:	30420007 	andi	v0,v0,0x7
80000674:	00402025 	move	a0,v0
80000678:	0c0001a7 	jal	8000069c <writeValTo7Segs>
8000067c:	00000000 	nop
80000680:	10000004 	b	80000694 <loop1+0x3ac>
80000684:	00000000 	nop
80000688:	00002025 	move	a0,zero
8000068c:	0c0001a7 	jal	8000069c <writeValTo7Segs>
80000690:	00000000 	nop
80000694:	1000ff9e 	b	80000510 <loop1+0x228>
80000698:	00000000 	nop

8000069c <writeValTo7Segs>:
8000069c:	27bdffe8 	addiu	sp,sp,-24
800006a0:	afbe0014 	sw	s8,20(sp)
800006a4:	03a0f025 	move	s8,sp
800006a8:	afc40018 	sw	a0,24(s8)
800006ac:	afc00004 	sw	zero,4(s8)
800006b0:	afc00008 	sw	zero,8(s8)
800006b4:	afc00004 	sw	zero,4(s8)
800006b8:	10000025 	b	80000750 <writeValTo7Segs+0xb4>
800006bc:	00000000 	nop
800006c0:	8fc30018 	lw	v1,24(s8)
800006c4:	3c02cccc 	lui	v0,0xcccc
800006c8:	3442cccd 	ori	v0,v0,0xcccd
800006cc:	00620019 	multu	v1,v0
800006d0:	00001010 	mfhi	v0
800006d4:	000210c2 	srl	v0,v0,0x3
800006d8:	00021040 	sll	v0,v0,0x1
800006dc:	00022080 	sll	a0,v0,0x2
800006e0:	00441021 	addu	v0,v0,a0
800006e4:	00621023 	subu	v0,v1,v0
800006e8:	afc20000 	sw	v0,0(s8)
800006ec:	8fc30000 	lw	v1,0(s8)
800006f0:	8fc20004 	lw	v0,4(s8)
800006f4:	00021080 	sll	v0,v0,0x2
800006f8:	00431004 	sllv	v0,v1,v0
800006fc:	00401825 	move	v1,v0
80000700:	8fc20008 	lw	v0,8(s8)
80000704:	00621025 	or	v0,v1,v0
80000708:	afc20008 	sw	v0,8(s8)
8000070c:	8fc30018 	lw	v1,24(s8)
80000710:	3c02cccc 	lui	v0,0xcccc
80000714:	3442cccd 	ori	v0,v0,0xcccd
80000718:	00620019 	multu	v1,v0
8000071c:	00001010 	mfhi	v0
80000720:	000210c2 	srl	v0,v0,0x3
80000724:	afc20018 	sw	v0,24(s8)
80000728:	8fc20004 	lw	v0,4(s8)
8000072c:	24030001 	li	v1,1
80000730:	00431004 	sllv	v0,v1,v0
80000734:	00401825 	move	v1,v0
80000738:	8fc2000c 	lw	v0,12(s8)
8000073c:	00621025 	or	v0,v1,v0
80000740:	afc2000c 	sw	v0,12(s8)
80000744:	8fc20004 	lw	v0,4(s8)
80000748:	24420001 	addiu	v0,v0,1
8000074c:	afc20004 	sw	v0,4(s8)
80000750:	8fc20018 	lw	v0,24(s8)
80000754:	10400005 	beqz	v0,8000076c <writeValTo7Segs+0xd0>
80000758:	00000000 	nop
8000075c:	8fc20004 	lw	v0,4(s8)
80000760:	28420008 	slti	v0,v0,8
80000764:	1440ffd6 	bnez	v0,800006c0 <writeValTo7Segs+0x24>
80000768:	00000000 	nop
8000076c:	3c02bf80 	lui	v0,0xbf80
80000770:	34420010 	ori	v0,v0,0x10
80000774:	8fc30008 	lw	v1,8(s8)
80000778:	ac430000 	sw	v1,0(v0)
8000077c:	3c02bf80 	lui	v0,0xbf80
80000780:	3442000c 	ori	v0,v0,0xc
80000784:	8fc3000c 	lw	v1,12(s8)
80000788:	00031827 	nor	v1,zero,v1
8000078c:	ac430000 	sw	v1,0(v0)
80000790:	00000000 	nop
80000794:	03c0e825 	move	sp,s8
80000798:	8fbe0014 	lw	s8,20(sp)
8000079c:	27bd0018 	addiu	sp,sp,24
800007a0:	03e00008 	jr	ra
800007a4:	00000000 	nop

800007a8 <_mips_handle_exception>:
800007a8:	27bdfff8 	addiu	sp,sp,-8
800007ac:	afbe0004 	sw	s8,4(sp)
800007b0:	03a0f025 	move	s8,sp
800007b4:	afc40008 	sw	a0,8(s8)
800007b8:	afc5000c 	sw	a1,12(s8)
800007bc:	3c02bf80 	lui	v0,0xbf80
800007c0:	34038001 	li	v1,0x8001
800007c4:	ac430000 	sw	v1,0(v0)
800007c8:	1000ffff 	b	800007c8 <_mips_handle_exception+0x20>
800007cc:	00000000 	nop

Disassembly of section .rodata:

800007e8 <.rodata>:
800007e8:	80000544 	lb	zero,1348(zero)
800007ec:	8000055c 	lb	zero,1372(zero)
800007f0:	80000574 	lb	zero,1396(zero)
800007f4:	800005a0 	lb	zero,1440(zero)
800007f8:	80000604 	lb	zero,1540(zero)
800007fc:	80000664 	lb	zero,1636(zero)

Disassembly of section .bss:

80000800 <_bss_start>:
	...

80001800 <z>:
	...

80002800 <y>:
	...

Disassembly of section .debug_aranges:

00000000 <.debug_aranges>:
   0:	0000001c 	0x1c
   4:	00000002 	srl	zero,zero,0x0
   8:	00040000 	sll	zero,a0,0x0
   c:	00000000 	nop
  10:	9fc00144 	0x9fc00144
  14:	00000070 	tge	zero,zero,0x1
	...
  20:	0000001c 	0x1c
  24:	00610002 	0x610002
  28:	00040000 	sll	zero,a0,0x0
  2c:	00000000 	nop
  30:	9fc00000 	0x9fc00000
  34:	00000144 	0x144
	...
  40:	0000001c 	0x1c
  44:	00c20002 	0xc20002
  48:	00040000 	sll	zero,a0,0x0
  4c:	00000000 	nop
  50:	80000000 	lb	zero,0(zero)
  54:	00000198 	0x198
	...
  60:	0000001c 	0x1c
  64:	01290002 	0x1290002
  68:	00040000 	sll	zero,a0,0x0
  6c:	00000000 	nop
  70:	80000200 	lb	zero,512(zero)
  74:	00000004 	sllv	zero,zero,zero
	...
  80:	0000001c 	0x1c
  84:	018b0002 	0x18b0002
  88:	00040000 	sll	zero,a0,0x0
  8c:	00000000 	nop
  90:	80000204 	lb	zero,516(zero)
  94:	000005cc 	syscall	0x17
	...

Disassembly of section .debug_info:

00000000 <.debug_info>:
   0:	0000005d 	0x5d
   4:	00000002 	srl	zero,zero,0x0
   8:	01040000 	0x1040000
   c:	00000000 	nop
  10:	9fc00144 	0x9fc00144
  14:	9fc001b4 	0x9fc001b4
  18:	30747263 	andi	s4,v1,0x7263
  1c:	4300532e 	c0	0x100532e
  20:	73555c3a 	0x73555c3a
  24:	5c737265 	0x5c737265
  28:	696e6144 	0x696e6144
  2c:	7365445c 	udi12	k1,a1,t0,0x11
  30:	706f746b 	s16std	xr1,v1,-70,ptn1
  34:	6d69535c 	0x6d69535c
  38:	74616c75 	jalx	185b1d4 <__memory_size+0x183b9d4>
  3c:	536e6f69 	beql	k1,t6,1bde4 <__isr_vec_space+0x1bdc4>
  40:	6372756f 	0x6372756f
  44:	532d7365 	beql	t9,t5,1cddc <__isr_vec_space+0x1cdbc>
  48:	656c656b 	0x656c656b
  4c:	006e6f74 	teq	v1,t6,0x1bd
  50:	20554e47 	addi	s5,v0,20039
  54:	32205341 	andi	zero,s1,0x5341
  58:	2e34322e 	sltiu	s4,s1,12846
  5c:	01003039 	0x1003039
  60:	00005d80 	sll	t3,zero,0x16
  64:	14000200 	bnez	zero,868 <__isr_vec_space+0x848>
  68:	04000000 	bltz	zero,6c <__isr_vec_space+0x4c>
  6c:	00004801 	movf	t1,zero,$fcc0
  70:	c0000000 	ll	zero,0(zero)
  74:	c001449f 	ll	at,17567(zero)
  78:	6f6f629f 	0x6f6f629f
  7c:	00532e74 	teq	v0,s3,0xb9
  80:	555c3a43 	bnel	t2,gp,e990 <__isr_vec_space+0xe970>
  84:	73726573 	d32sar	xr5,xr9,xr9,xr12,13
  88:	6e61445c 	0x6e61445c
  8c:	65445c69 	0x65445c69
  90:	6f746b73 	0x6f746b73
  94:	69535c70 	0x69535c70
  98:	616c756d 	0x616c756d
  9c:	6e6f6974 	0x6e6f6974
  a0:	72756f53 	udi3	s3,s5,t5,0x1d
  a4:	2d736563 	sltiu	s3,t3,25955
  a8:	6c656b53 	0x6c656b53
  ac:	6e6f7465 	0x6e6f7465
  b0:	554e4700 	bnel	t2,t6,11cb4 <__isr_vec_space+0x11c94>
  b4:	20534120 	addi	s3,v0,16672
  b8:	34322e32 	ori	s2,at,0x2e32
  bc:	0030392e 	0x30392e
  c0:	00638001 	0x638001
  c4:	00020000 	sll	zero,v0,0x0
  c8:	00000028 	0x28
  cc:	00ce0104 	0xce0104
  d0:	00000000 	nop
  d4:	01988000 	0x1988000
  d8:	78658000 	andi.b	$w0,$w16,0x65
  dc:	74706563 	jalx	1c1958c <__memory_size+0x1bf9d8c>
  e0:	736e6f69 	0x736e6f69
  e4:	4300532e 	c0	0x100532e
  e8:	73555c3a 	0x73555c3a
  ec:	5c737265 	0x5c737265
  f0:	696e6144 	0x696e6144
  f4:	7365445c 	udi12	k1,a1,t0,0x11
  f8:	706f746b 	s16std	xr1,v1,-70,ptn1
  fc:	6d69535c 	0x6d69535c
 100:	74616c75 	jalx	185b1d4 <__memory_size+0x183b9d4>
 104:	536e6f69 	beql	k1,t6,1beac <__isr_vec_space+0x1be8c>
 108:	6372756f 	0x6372756f
 10c:	532d7365 	beql	t9,t5,1cea4 <__isr_vec_space+0x1ce84>
 110:	656c656b 	0x656c656b
 114:	006e6f74 	teq	v1,t6,0x1bd
 118:	20554e47 	addi	s5,v0,20039
 11c:	32205341 	andi	zero,s1,0x5341
 120:	2e34322e 	sltiu	s4,s1,12846
 124:	01003039 	0x1003039
 128:	00005e80 	sll	t3,zero,0x1a
 12c:	3c000200 	lui	zero,0x200
 130:	04000000 	bltz	zero,134 <__isr_vec_space+0x114>
 134:	00011b01 	0x11b01
 138:	00020000 	sll	zero,v0,0x0
 13c:	00020480 	sll	zero,v0,0x12
 140:	6d756480 	0x6d756480
 144:	532e796d 	beql	t9,t6,1e6fc <__isr_vec_space+0x1e6dc>
 148:	5c3a4300 	0x5c3a4300
 14c:	72657355 	s32sdi	xr13,s3,1392
 150:	61445c73 	0x61445c73
 154:	445c696e 	0x445c696e
 158:	746b7365 	jalx	1adcd94 <__memory_size+0x1abd594>
 15c:	535c706f 	beql	k0,gp,1c31c <__isr_vec_space+0x1c2fc>
 160:	6c756d69 	0x6c756d69
 164:	6f697461 	0x6f697461
 168:	756f536e 	jalx	5bd4db8 <__memory_size+0x5bb55b8>
 16c:	73656372 	0x73656372
 170:	656b532d 	0x656b532d
 174:	6f74656c 	0x6f74656c
 178:	4e47006e 	msub.ps	$f1,$f18,$f0,$f7
 17c:	53412055 	beql	k0,at,82d4 <__isr_vec_space+0x82b4>
 180:	322e3220 	andi	t6,s1,0x3220
 184:	30392e34 	andi	t9,at,0x2e34
 188:	9e800100 	0x9e800100
 18c:	04000002 	bltz	zero,198 <__isr_vec_space+0x178>
 190:	00005000 	sll	t2,zero,0x0
 194:	06010400 	bgez	s0,1198 <__isr_vec_space+0x1178>
 198:	01000000 	0x1000000
 19c:	0000005d 	0x5d
 1a0:	00000090 	0x90
 1a4:	80000204 	lb	zero,516(zero)
 1a8:	000005cc 	syscall	0x17
 1ac:	00000152 	0x152
 1b0:	7e070402 	0x7e070402
 1b4:	02000000 	0x2000000
 1b8:	00830704 	0x830704
 1bc:	55030000 	bnel	t0,v1,1c0 <__isr_vec_space+0x1a0>
 1c0:	02000000 	0x2000000
 1c4:	002c0393 	0x2c0393
 1c8:	08020000 	j	80000 <__memory_size+0x60800>
 1cc:	00007907 	0x7907
 1d0:	05040400 	0x5040400
 1d4:	00746e69 	0x746e69
 1d8:	1c010805 	0x1c010805
 1dc:	0000006e 	0x6e
 1e0:	00007206 	0x7206
 1e4:	2c1e0100 	sltiu	s8,zero,256
 1e8:	00000000 	nop
 1ec:	00011306 	0x11306
 1f0:	2c1f0100 	sltiu	ra,zero,256
 1f4:	04000000 	bltz	zero,1f8 <__isr_vec_space+0x1d8>
 1f8:	00640700 	0x640700
 1fc:	21010000 	addi	at,t0,0
 200:	0000004d 	break	0x0,0x1
 204:	0000ca08 	0xca08
 208:	46310100 	add.d	$f4,$f0,$f17
 20c:	04000000 	bltz	zero,210 <__isr_vec_space+0x1f0>
 210:	98800002 	lwr	zero,2(a0)
 214:	01000004 	sllv	zero,zero,t0
 218:	0001bf9c 	0x1bf9c
 21c:	00690900 	0x690900
 220:	00463301 	0x463301
 224:	91020000 	lbu	v0,0(t0)
 228:	006a0958 	0x6a0958
 22c:	00463301 	0x463301
 230:	91020000 	lbu	v0,0(t0)
 234:	006b095c 	0x6b095c
 238:	00463301 	0x463301
 23c:	91020000 	lbu	v0,0(t0)
 240:	00720960 	0x720960
 244:	00463301 	0x463301
 248:	91020000 	lbu	v0,0(t0)
 24c:	6a6a0964 	0x6a6a0964
 250:	46330100 	add.d	$f4,$f0,$f19
 254:	02000000 	0x2000000
 258:	6b096891 	0x6b096891
 25c:	3301006b 	andi	at,t8,0x6b
 260:	00000046 	rorv	zero,zero,zero
 264:	0a6c9102 	j	9b24408 <__memory_size+0x9b04c08>
 268:	00000107 	0x107
 26c:	006e3401 	0x6e3401
 270:	91020000 	lbu	v0,0(t0)
 274:	04d00b70 	bltzal	a2,3038 <__isr_vec_space+0x3018>
 278:	000c8000 	sll	s0,t4,0x0
 27c:	01050000 	0x1050000
 280:	5f090000 	0x5f090000
 284:	0100725f 	0x100725f
 288:	00002560 	0x2560
 28c:	006f0100 	0x6f0100
 290:	0004e00b 	movn	gp,zero,a0
 294:	00000c80 	sll	at,zero,0x12
 298:	00012000 	sll	a0,at,0x0
 29c:	5f5f0900 	0x5f5f0900
 2a0:	60010072 	0x60010072
 2a4:	00000025 	move	zero,zero
 2a8:	0b006f01 	j	c01bc04 <__memory_size+0xbffc404>
 2ac:	80000574 	lb	zero,1396(zero)
 2b0:	0000000c 	syscall
 2b4:	0000013b 	0x13b
 2b8:	725f5f09 	0x725f5f09
 2bc:	256f0100 	addiu	t7,t3,256
 2c0:	01000000 	0x1000000
 2c4:	a00b006f 	sb	t3,111(zero)
 2c8:	0c800005 	jal	2000014 <__memory_size+0x1fe0814>
 2cc:	56000000 	bnezl	s0,2d0 <__isr_vec_space+0x2b0>
 2d0:	09000001 	j	4000004 <__memory_size+0x3fe0804>
 2d4:	00725f5f 	0x725f5f
 2d8:	00257301 	0x257301
 2dc:	6f010000 	0x6f010000
 2e0:	05c00b00 	bltz	t6,2ee4 <__isr_vec_space+0x2ec4>
 2e4:	000c8000 	sll	s0,t4,0x0
 2e8:	01710000 	0x1710000
 2ec:	5f090000 	0x5f090000
 2f0:	0100725f 	0x100725f
 2f4:	00002573 	tltu	zero,zero,0x95
 2f8:	006f0100 	0x6f0100
 2fc:	0006040b 	0x6040b
 300:	00000c80 	sll	at,zero,0x12
 304:	00018c00 	sll	s1,at,0x10
 308:	5f5f0900 	0x5f5f0900
 30c:	77010072 	jalx	c0401c8 <__memory_size+0xc0209c8>
 310:	00000025 	move	zero,zero
 314:	0b006f01 	j	c01bc04 <__memory_size+0xbffc404>
 318:	80000620 	lb	zero,1568(zero)
 31c:	0000000c 	syscall
 320:	000001a7 	0x1a7
 324:	725f5f09 	0x725f5f09
 328:	25770100 	addiu	s7,t3,256
 32c:	01000000 	0x1000000
 330:	640c006f 	0x640c006f
 334:	0c800006 	jal	2000018 <__memory_size+0x1fe0818>
 338:	09000000 	j	4000000 <__memory_size+0x3fe0800>
 33c:	00725f5f 	0x725f5f
 340:	00257b01 	0x257b01
 344:	6f010000 	0x6f010000
 348:	f70d0000 	sdc1	$f13,0(t8)
 34c:	01000000 	0x1000000
 350:	00069c87 	0x69c87
 354:	00010c80 	sll	at,at,0x12
 358:	199c0100 	0x199c0100
 35c:	0e000002 	jal	8000008 <__memory_size+0x7fe0808>
 360:	006c6176 	tne	v1,t4,0x185
 364:	002c8701 	0x2c8701
 368:	91020000 	lbu	v0,0(t0)
 36c:	00000a00 	sll	at,zero,0x8
 370:	89010000 	lwl	at,0(t0)
 374:	00000219 	0x219
 378:	09689102 	j	5a24408 <__memory_size+0x5a04c08>
 37c:	89010069 	lwl	at,105(t0)
 380:	00000219 	0x219
 384:	0a6c9102 	j	9b24408 <__memory_size+0x9b04c08>
 388:	000000cf 	sync	0x3
 38c:	021e8a01 	0x21e8a01
 390:	91020000 	lbu	v0,0(t0)
 394:	00c10a70 	tge	a2,at,0x29
 398:	8a010000 	lwl	at,0(s0)
 39c:	0000021e 	0x21e
 3a0:	00749102 	0x749102
 3a4:	0000460f 	0x460f
 3a8:	002c0f00 	0x2c0f00
 3ac:	d90d0000 	ldc2	$13,0(t0)
 3b0:	01000000 	0x1000000
 3b4:	0007a89c 	0x7a89c
 3b8:	00002880 	sll	a1,zero,0x2
 3bc:	559c0100 	bnel	t4,gp,7c0 <__isr_vec_space+0x7a0>
 3c0:	0e000002 	jal	8000008 <__memory_size+0x7fe0808>
 3c4:	00787463 	0x787463
 3c8:	02559c01 	0x2559c01
 3cc:	91020000 	lbu	v0,0(t0)
 3d0:	00f01000 	0xf01000
 3d4:	9c010000 	0x9c010000
 3d8:	00000046 	rorv	zero,zero,zero
 3dc:	00049102 	srl	s2,a0,0x4
 3e0:	46120411 	c1	0x120411
 3e4:	6d000000 	0x6d000000
 3e8:	13000002 	beqz	t8,3f4 <__isr_vec_space+0x3d4>
 3ec:	0000026d 	0x26d
 3f0:	026d131f 	0x26d131f
 3f4:	001f0000 	sll	zero,ra,0x0
 3f8:	1a070402 	0x1a070402
 3fc:	14000001 	bnez	zero,404 <__isr_vec_space+0x3e4>
 400:	2d010078 	sltiu	at,t0,120
 404:	00000257 	0x257
 408:	08000305 	j	c14 <__isr_vec_space+0xbf4>
 40c:	79148000 	ori.b	$w0,$w16,0x14
 410:	572d0100 	bnel	t9,t5,814 <__isr_vec_space+0x7f4>
 414:	05000002 	bltz	t0,420 <__isr_vec_space+0x400>
 418:	00280003 	0x280003
 41c:	007a1480 	0x7a1480
 420:	02572d01 	0x2572d01
 424:	03050000 	0x3050000
 428:	80001800 	lb	zero,6144(zero)
	...

Disassembly of section .debug_abbrev:

00000000 <.debug_abbrev>:
   0:	10001101 	b	4408 <__isr_vec_space+0x43e8>
   4:	12011106 	beq	s0,at,4420 <__isr_vec_space+0x4400>
   8:	1b080301 	0x1b080301
   c:	13082508 	beq	t8,t0,9430 <__isr_vec_space+0x9410>
  10:	00000005 	lsa	zero,zero,zero,0x1
  14:	10001101 	b	441c <__isr_vec_space+0x43fc>
  18:	12011106 	beq	s0,at,4434 <__isr_vec_space+0x4414>
  1c:	1b080301 	0x1b080301
  20:	13082508 	beq	t8,t0,9444 <__isr_vec_space+0x9424>
  24:	00000005 	lsa	zero,zero,zero,0x1
  28:	10001101 	b	4430 <__isr_vec_space+0x4410>
  2c:	12011106 	beq	s0,at,4448 <__isr_vec_space+0x4428>
  30:	1b080301 	0x1b080301
  34:	13082508 	beq	t8,t0,9458 <__isr_vec_space+0x9438>
  38:	00000005 	lsa	zero,zero,zero,0x1
  3c:	10001101 	b	4444 <__isr_vec_space+0x4424>
  40:	12011106 	beq	s0,at,445c <__isr_vec_space+0x443c>
  44:	1b080301 	0x1b080301
  48:	13082508 	beq	t8,t0,946c <__isr_vec_space+0x944c>
  4c:	00000005 	lsa	zero,zero,zero,0x1
  50:	25011101 	addiu	at,t0,4353
  54:	030b130e 	0x30b130e
  58:	110e1b0e 	beq	t0,t6,6c94 <__isr_vec_space+0x6c74>
  5c:	10061201 	beq	zero,a2,4864 <__isr_vec_space+0x4844>
  60:	02000017 	0x2000017
  64:	0b0b0024 	j	c2c0090 <__memory_size+0xc2a0890>
  68:	0e030b3e 	jal	80c2cf8 <__memory_size+0x80a34f8>
  6c:	16030000 	bne	s0,v1,70 <__isr_vec_space+0x50>
  70:	3a0e0300 	xori	t6,s0,0x300
  74:	49053b0b 	bc2t	$cc1,eca4 <__isr_vec_space+0xec84>
  78:	04000013 	bltz	zero,c8 <__isr_vec_space+0xa8>
  7c:	0b0b0024 	j	c2c0090 <__memory_size+0xc2a0890>
  80:	08030b3e 	j	c2cf8 <__memory_size+0xa34f8>
  84:	13050000 	beq	t8,a1,88 <__isr_vec_space+0x68>
  88:	3a0b0b01 	xori	t3,s0,0xb01
  8c:	010b3b0b 	0x10b3b0b
  90:	06000013 	bltz	s0,e0 <__isr_vec_space+0xc0>
  94:	0e03000d 	jal	80c0034 <__memory_size+0x80a0834>
  98:	0b3b0b3a 	j	cec2ce8 <__memory_size+0xcea34e8>
  9c:	0b381349 	j	ce04d24 <__memory_size+0xcde5524>
  a0:	16070000 	bne	s0,a3,a4 <__isr_vec_space+0x84>
  a4:	3a0e0300 	xori	t6,s0,0x300
  a8:	490b3b0b 	bc2tl	$cc2,ecd8 <__isr_vec_space+0xecb8>
  ac:	08000013 	j	4c <__isr_vec_space+0x2c>
  b0:	193f012e 	0x193f012e
  b4:	0b3a0e03 	j	ce8380c <__memory_size+0xce6400c>
  b8:	13490b3b 	beq	k0,t1,2da8 <__isr_vec_space+0x2d88>
  bc:	06120111 	bltzall	s0,504 <__isr_vec_space+0x4e4>
  c0:	42961840 	c0	0x961840
  c4:	00130119 	0x130119
  c8:	00340900 	0x340900
  cc:	0b3a0803 	j	ce8200c <__memory_size+0xce6280c>
  d0:	13490b3b 	beq	k0,t1,2dc0 <__isr_vec_space+0x2da0>
  d4:	00001802 	srl	v1,zero,0x0
  d8:	0300340a 	0x300340a
  dc:	3b0b3a0e 	xori	t3,t8,0x3a0e
  e0:	0213490b 	0x213490b
  e4:	0b000018 	j	c000060 <__memory_size+0xbfe0860>
  e8:	0111010b 	0x111010b
  ec:	13010612 	beq	t8,at,1938 <__isr_vec_space+0x1918>
  f0:	0b0c0000 	j	c300000 <__memory_size+0xc2e0800>
  f4:	12011101 	beq	s0,at,44fc <__isr_vec_space+0x44dc>
  f8:	0d000006 	jal	4000018 <__memory_size+0x3fe0818>
  fc:	193f012e 	0x193f012e
 100:	0b3a0e03 	j	ce8380c <__memory_size+0xce6400c>
 104:	19270b3b 	0x19270b3b
 108:	06120111 	bltzall	s0,550 <__isr_vec_space+0x530>
 10c:	42971840 	c0	0x971840
 110:	00130119 	0x130119
 114:	00050e00 	sll	at,a1,0x18
 118:	0b3a0803 	j	ce8200c <__memory_size+0xce6280c>
 11c:	13490b3b 	beq	k0,t1,2e0c <__isr_vec_space+0x2dec>
 120:	00001802 	srl	v1,zero,0x0
 124:	4900350f 	bc2f	d564 <__isr_vec_space+0xd544>
 128:	10000013 	b	178 <__isr_vec_space+0x158>
 12c:	0e030005 	jal	80c0014 <__memory_size+0x80a0814>
 130:	0b3b0b3a 	j	cec2ce8 <__memory_size+0xcea34e8>
 134:	18021349 	0x18021349
 138:	0f110000 	jal	c440000 <__memory_size+0xc420800>
 13c:	000b0b00 	sll	at,t3,0xc
 140:	01011200 	0x1011200
 144:	13011349 	beq	t8,at,4e6c <__isr_vec_space+0x4e4c>
 148:	21130000 	addi	s3,t0,0
 14c:	2f134900 	sltiu	s3,t8,18688
 150:	1400000b 	bnez	zero,180 <__isr_vec_space+0x160>
 154:	08030034 	j	c00d0 <__memory_size+0xa08d0>
 158:	0b3b0b3a 	j	cec2ce8 <__memory_size+0xcea34e8>
 15c:	193f1349 	0x193f1349
 160:	00001802 	srl	v1,zero,0x0
	...

Disassembly of section .debug_line:

00000000 <.debug_line>:
   0:	00000044 	0x44
   4:	001d0002 	srl	zero,sp,0x0
   8:	01010000 	0x1010000
   c:	000d0efb 	0xd0efb
  10:	01010101 	0x1010101
  14:	01000000 	0x1000000
  18:	00010000 	sll	zero,at,0x0
  1c:	30747263 	andi	s4,v1,0x7263
  20:	0000532e 	0x532e
  24:	00000000 	nop
  28:	01440205 	0x1440205
  2c:	0f039fc0 	jal	c0e7f00 <__memory_size+0xc0c8700>
  30:	84844c01 	lh	a0,19457(a0)
  34:	4b848383 	c2	0x1848383
  38:	4e4c854b 	c3	0x4c854b
  3c:	4d4b4b4b 	0x4d4b4b4b
  40:	024b8583 	0x24b8583
  44:	01010008 	0x1010008
  48:	00000082 	srl	zero,zero,0x2
  4c:	001d0002 	srl	zero,sp,0x0
  50:	01010000 	0x1010000
  54:	000d0efb 	0xd0efb
  58:	01010101 	0x1010101
  5c:	01000000 	0x1000000
  60:	00010000 	sll	zero,at,0x0
  64:	746f6f62 	jalx	1bdbd88 <__memory_size+0x1bbc588>
  68:	0000532e 	0x532e
  6c:	00000000 	nop
  70:	00000205 	0x205
  74:	13039fc0 	beq	t8,v1,fffe7f78 <__entry+0x403e7f78>
  78:	4d835101 	0x4d835101
  7c:	4a0a034d 	c2	0xa034d
  80:	4d4b4b4b 	0x4d4b4b4b
  84:	4b4b4b4b 	c2	0x14b4b4b
  88:	4b4d4b4b 	c2	0x14d4b4b
  8c:	4c4b4b4b 	0x4c4b4b4b
  90:	4b4b514b 	c2	0x14b514b
  94:	4c4b4c4b 	0x4c4b4c4b
  98:	4b4c4b4b 	c2	0x14c4b4b
  9c:	4b4c4b4b 	c2	0x14c4b4b
  a0:	4b4b4b4f 	c2	0x14b4b4f
  a4:	4b4a0c03 	c2	0x14a0c03
  a8:	834c4b4b 	lb	t4,19275(k0)
  ac:	4b4b504b 	c2	0x14b504b
  b0:	4c4b4c4b 	0x4c4b4c4b
  b4:	4b4c4b4b 	c2	0x14c4b4b
  b8:	4b4c4b4b 	c2	0x14c4b4b
  bc:	4b4b4f4b 	c2	0x14b4f4b
  c0:	4c834f4b 	0x4c834f4b
  c4:	504e4b83 	beql	v0,t6,12ed4 <__isr_vec_space+0x12eb4>
  c8:	0004024b 	0x4024b
  cc:	00490101 	0x490101
  d0:	00020000 	sll	zero,v0,0x0
  d4:	00000023 	negu	zero,zero
  d8:	0efb0101 	jal	bec0404 <__memory_size+0xbea0c04>
  dc:	0101000d 	break	0x101
  e0:	00000101 	0x101
  e4:	00000100 	sll	zero,zero,0x4
  e8:	78650001 	bmnzi.b	$w0,$w0,0x65
  ec:	74706563 	jalx	1c1958c <__memory_size+0x1bf9d8c>
  f0:	736e6f69 	0x736e6f69
  f4:	0000532e 	0x532e
  f8:	00000000 	nop
  fc:	00000205 	0x205
 100:	2c038000 	sltiu	v1,zero,-32768
 104:	02838301 	0x2838301
 108:	83831770 	lb	v1,6000(gp)
 10c:	83177002 	lb	s7,28674(t8)
 110:	17700283 	bne	k1,s0,b20 <__isr_vec_space+0xb00>
 114:	08028383 	j	a0e0c <__memory_size+0x8160c>
 118:	33010100 	andi	at,t8,0x100
 11c:	02000000 	0x2000000
 120:	00001e00 	sll	v1,zero,0x18
 124:	fb010100 	sdc2	$1,256(t8)
 128:	01000d0e 	0x1000d0e
 12c:	00010101 	0x10101
 130:	00010000 	sll	zero,at,0x0
 134:	64000100 	0x64000100
 138:	796d6d75 	0x796d6d75
 13c:	0000532e 	0x532e
 140:	00000000 	nop
 144:	02000205 	0x2000205
 148:	3a038000 	xori	v1,s0,0x8000
 14c:	00040201 	0x40201
 150:	019f0101 	0x19f0101
 154:	00020000 	sll	zero,v0,0x0
 158:	00000078 	0x78
 15c:	0efb0101 	jal	bec0404 <__memory_size+0xbea0c04>
 160:	0101000d 	break	0x101
 164:	00000101 	0x101
 168:	00000100 	sll	zero,zero,0x4
 16c:	5c3a6301 	0x5c3a6301
 170:	676f7270 	0x676f7270
 174:	317e6172 	andi	s8,t3,0x6172
 178:	616d695c 	0x616d695c
 17c:	7e6e6967 	0x7e6e6967
 180:	6f745c31 	0x6f745c31
 184:	68636c6f 	0x68636c6f
 188:	6d5c317e 	0x6d5c317e
 18c:	2d737069 	sltiu	s3,t3,28777
 190:	2d69746d 	sltiu	t1,t3,29805
 194:	5c666c65 	0x5c666c65
 198:	36313032 	ori	s1,s1,0x3032
 19c:	2d35302e 	sltiu	s5,t1,12334
 1a0:	6d5c3330 	0x6d5c3330
 1a4:	2d737069 	sltiu	s3,t3,28777
 1a8:	2d69746d 	sltiu	t1,t3,29805
 1ac:	5c666c65 	0x5c666c65
 1b0:	6c636e69 	0x6c636e69
 1b4:	5c656475 	0x5c656475
 1b8:	7370696d 	s16sdi	xr5,k1,52,
 1bc:	616d0000 	0x616d0000
 1c0:	632e6e69 	0x632e6e69
 1c4:	00000000 	nop
 1c8:	6332336d 	0x6332336d
 1cc:	00682e30 	tge	v1,t0,0xb8
 1d0:	00000001 	movf	zero,zero,$fcc0
 1d4:	04020500 	bltzl	zero,15d8 <__isr_vec_space+0x15b8>
 1d8:	03800002 	0x3800002
 1dc:	bbf80130 	swr	t8,304(ra)
 1e0:	03040200 	0x3040200
 1e4:	040200bb 	bltzl	zero,4d4 <__isr_vec_space+0x4b4>
 1e8:	13280203 	beq	t9,t0,9f8 <__isr_vec_space+0x9d8>
 1ec:	03040200 	0x3040200
 1f0:	00132802 	srl	a1,s3,0x0
 1f4:	02030402 	0x2030402
 1f8:	02000f28 	0x2000f28
 1fc:	ba060104 	swr	a2,260(s0)
 200:	02040200 	0x2040200
 204:	0200f106 	0x200f106
 208:	ba060104 	swr	a2,260(s0)
 20c:	f20a0306 	0xf20a0306
 210:	24020e03 	li	v0,3587
 214:	14280201 	bne	at,t0,a1c <__isr_vec_space+0x9fc>
 218:	f3bbbbbb 	0xf3bbbbbb
 21c:	0402004b 	bltzl	zero,34c <__isr_vec_space+0x32c>
 220:	0200f303 	0x200f303
 224:	5c020304 	0x5c020304
 228:	04020011 	bltzl	zero,270 <__isr_vec_space+0x250>
 22c:	00ba0601 	0xba0601
 230:	06020402 	bltzl	s0,123c <__isr_vec_space+0x121c>
 234:	00152402 	srl	a0,s5,0x10
 238:	02020402 	0x2020402
 23c:	02000d50 	0x2000d50
 240:	ba060104 	swr	a2,260(s0)
 244:	02040200 	0x2040200
 248:	11240206 	beq	t1,a0,a64 <__isr_vec_space+0xa44>
 24c:	01040200 	0x1040200
 250:	0200ba06 	0x200ba06
 254:	f1060204 	0xf1060204
 258:	01040200 	0x1040200
 25c:	0200ba06 	0x200ba06
 260:	f1060204 	0xf1060204
 264:	01040200 	0x1040200
 268:	0306ba06 	0x306ba06
 26c:	4002f20f 	0x4002f20f
 270:	14340218 	bne	at,s4,ad4 <__isr_vec_space+0xab4>
 274:	85f384f3 	lh	s3,-31501(t7)
 278:	85132402 	lh	s3,9218(t0)
 27c:	01040200 	0x1040200
 280:	00e40806 	srlv	at,a0,a3
 284:	02020402 	0x2020402
 288:	0200122c 	0x200122c
 28c:	004a0404 	0x4a0404
 290:	06040402 	0x6040402
 294:	020085bb 	0x20085bb
 298:	08060104 	j	180410 <__memory_size+0x160c10>
 29c:	040200ac 	bltzl	zero,550 <__isr_vec_space+0x530>
 2a0:	122c0202 	beq	s1,t4,aac <__isr_vec_space+0xa8c>
 2a4:	04040200 	0x4040200
 2a8:	0402004a 	bltzl	zero,3d4 <__isr_vec_space+0x3b4>
 2ac:	85bb0604 	lh	k1,1540(t5)
 2b0:	bc84ad08 	cache	0x4,-21240(a0)
 2b4:	4d4bf489 	0x4d4bf489
 2b8:	04040200 	0x4040200
 2bc:	040200bb 	bltzl	zero,5ac <__isr_vec_space+0x58c>
 2c0:	132c0204 	beq	t9,t4,ad4 <__isr_vec_space+0xab4>
 2c4:	04040200 	0x4040200
 2c8:	0200e508 	0x200e508
 2cc:	ad080404 	sw	t0,1028(t0)
 2d0:	04040200 	0x4040200
 2d4:	0200a808 	0x200a808
 2d8:	ba060104 	swr	a2,260(s0)
 2dc:	03040200 	0x3040200
 2e0:	f3f906ba 	0xf3f906ba
 2e4:	084b3e08 	j	12cf820 <__memory_size+0x12b0020>
 2e8:	003d0840 	0x3d0840
 2ec:	bb010402 	swr	at,1026(t8)
 2f0:	01000802 	0x1000802
 2f4:	Address 0x00000000000002f4 is out of bounds.


Disassembly of section .debug_frame:

00000000 <.debug_frame>:
   0:	0000000c 	syscall
   4:	ffffffff 	sdc3	$31,-1(ra)
   8:	7c010001 	0x7c010001
   c:	001d0d1f 	0x1d0d1f
  10:	00000018 	mult	zero,zero
  14:	00000000 	nop
  18:	80000204 	lb	zero,516(zero)
  1c:	00000498 	0x498
  20:	48380e44 	0x48380e44
  24:	029e019f 	0x29e019f
  28:	001e0d44 	0x1e0d44
  2c:	00000020 	add	zero,zero,zero
  30:	00000000 	nop
  34:	8000069c 	lb	zero,1692(zero)
  38:	0000010c 	syscall	0x4
  3c:	44180e44 	0x44180e44
  40:	0d44019e 	jal	5100678 <__memory_size+0x50e0e78>
  44:	0df0021e 	jal	7c00878 <__memory_size+0x7be1078>
  48:	0ede481d 	jal	b792074 <__memory_size+0xb772874>
  4c:	00000000 	nop
  50:	00000018 	mult	zero,zero
  54:	00000000 	nop
  58:	800007a8 	lb	zero,1960(zero)
  5c:	00000028 	0x28
  60:	44080e44 	0x44080e44
  64:	0d44019e 	jal	5100678 <__memory_size+0x50e0e78>
  68:	0000001e 	0x1e

Disassembly of section .debug_str:

00000000 <.debug_str>:
   0:	69676964 	0x69676964
   4:	4e470074 	c3	0x470074
   8:	20432055 	addi	v1,v0,8277
   c:	2e392e34 	sltiu	t9,s1,11828
  10:	6d2d2032 	0x6d2d2032
  14:	2d206c65 	sltiu	zero,t1,27749
  18:	6372616d 	0x6372616d
  1c:	316d3d68 	andi	t5,t3,0x3d68
  20:	20636b34 	addi	v1,v1,27444
  24:	6f736d2d 	0x6f736d2d
  28:	662d7466 	0x662d7466
  2c:	74616f6c 	jalx	185bdb0 <__memory_size+0x183c5b0>
  30:	706d2d20 	0x706d2d20
  34:	2d20746c 	sltiu	zero,t1,29804
  38:	7370696d 	s16sdi	xr5,k1,52,
  3c:	32723233 	andi	s2,s3,0x3233
  40:	736d2d20 	0x736d2d20
  44:	69636e79 	0x69636e79
  48:	616d2d20 	0x616d2d20
  4c:	333d6962 	andi	sp,t9,0x6962
  50:	672d2032 	0x672d2032
  54:	67657200 	0x67657200
  58:	745f3233 	jalx	17cc8cc <__memory_size+0x17ad0cc>
  5c:	69616d00 	0x69616d00
  60:	00632e6e 	0x632e6e
  64:	74736574 	jalx	1cd95d0 <__memory_size+0x1cb9dd0>
  68:	7365725f 	udi15	k1,a1,t6,0x9
  6c:	5f746c75 	0x5f746c75
  70:	76650074 	jalx	99401d0 <__memory_size+0x99209d0>
  74:	31746e65 	andi	s4,t3,0x6e65
  78:	6e6f6c00 	0x6e6f6c00
  7c:	6f6c2067 	0x6f6c2067
  80:	7520676e 	jalx	4819db8 <__memory_size+0x47fa5b8>
  84:	6769736e 	0x6769736e
  88:	2064656e 	addi	a0,v1,25966
  8c:	00746e69 	0x746e69
  90:	555c3a43 	bnel	t2,gp,e9a0 <__isr_vec_space+0xe980>
  94:	73726573 	d32sar	xr5,xr9,xr9,xr12,13
  98:	6e61445c 	0x6e61445c
  9c:	65445c69 	0x65445c69
  a0:	6f746b73 	0x6f746b73
  a4:	69535c70 	0x69535c70
  a8:	616c756d 	0x616c756d
  ac:	6e6f6974 	0x6e6f6974
  b0:	72756f53 	udi3	s3,s5,t5,0x1d
  b4:	5f736563 	0x5f736563
  b8:	636f6c42 	0x636f6c42
  bc:	676e696b 	0x676e696b
  c0:	446e6500 	0x446e6500
  c4:	74696769 	jalx	1a59da4 <__memory_size+0x1a3a5a4>
  c8:	616d0073 	0x616d0073
  cc:	61006e69 	0x61006e69
  d0:	69446c6c 	0x69446c6c
  d4:	73746967 	0x73746967
  d8:	696d5f00 	0x696d5f00
  dc:	685f7370 	0x685f7370
  e0:	6c646e61 	0x6c646e61
  e4:	78655f65 	st.h	$w29,202(t3)
  e8:	74706563 	jalx	1c1958c <__memory_size+0x1bf9d8c>
  ec:	006e6f69 	0x6e6f69
  f0:	73616572 	0x73616572
  f4:	77006e6f 	jalx	c01b9bc <__memory_size+0xbffc1bc>
  f8:	65746972 	0x65746972
  fc:	546c6156 	bnel	v1,t4,18658 <__isr_vec_space+0x18638>
 100:	6553376f 	0x6553376f
 104:	74007367 	jalx	1cd9c <__isr_vec_space+0x1cd7c>
 108:	5f747365 	0x5f747365
 10c:	75736572 	jalx	5cd95c8 <__memory_size+0x5cb9dc8>
 110:	6500746c 	0x6500746c
 114:	746e6576 	jalx	1b995d8 <__memory_size+0x1b79dd8>
 118:	69730032 	0x69730032
 11c:	7974657a 	0x7974657a
 120:	Address 0x0000000000000120 is out of bounds.


Disassembly of section .pdr:

00000000 <.pdr>:
   0:	9fc00144 	0x9fc00144
	...
  20:	9fc00000 	0x9fc00000
	...
  40:	80000000 	lb	zero,0(zero)
	...
  60:	80000200 	lb	zero,512(zero)
	...
  80:	80000200 	lb	zero,512(zero)
	...
  a0:	80000200 	lb	zero,512(zero)
	...
  c0:	80000200 	lb	zero,512(zero)
	...
  e0:	80000200 	lb	zero,512(zero)
	...
 100:	80000204 	lb	zero,516(zero)
 104:	c0000000 	ll	zero,0(zero)
 108:	fffffffc 	sdc3	$31,-4(ra)
	...
 114:	00000038 	0x38
 118:	0000001e 	0x1e
 11c:	0000001f 	0x1f
 120:	8000069c 	lb	zero,1692(zero)
 124:	40000000 	mfc0	zero,c0_index
 128:	fffffffc 	sdc3	$31,-4(ra)
	...
 134:	00000018 	mult	zero,zero
 138:	0000001e 	0x1e
 13c:	0000001f 	0x1f
 140:	800007a8 	lb	zero,1960(zero)
 144:	40000000 	mfc0	zero,c0_index
 148:	fffffffc 	sdc3	$31,-4(ra)
	...
 154:	00000008 	jr	zero
 158:	0000001e 	0x1e
 15c:	0000001f 	0x1f

Disassembly of section .gnu.attributes:

00000000 <.gnu.attributes>:
   0:	00000f41 	0xf41
   4:	756e6700 	jalx	5b99c00 <__memory_size+0x5b7a400>
   8:	00070100 	sll	zero,a3,0x4
   c:	03040000 	0x3040000

Disassembly of section .comment:

00000000 <.comment>:
   0:	3a434347 	xori	v1,s2,0x4347
   4:	6f432820 	0x6f432820
   8:	63736564 	0x63736564
   c:	20657061 	addi	a1,v1,28769
  10:	20554e47 	addi	s5,v0,20039
  14:	6c6f6f54 	0x6c6f6f54
  18:	30322073 	andi	s2,at,0x2073
  1c:	302e3631 	andi	t6,at,0x3631
  20:	33302d35 	andi	s0,t9,0x2d35
  24:	726f6620 	0x726f6620
  28:	50494d20 	beql	v0,t1,134ac <__isr_vec_space+0x1348c>
  2c:	544d2053 	bnel	v0,t5,817c <__isr_vec_space+0x815c>
  30:	61422049 	0x61422049
  34:	4d206572 	0x4d206572
  38:	6c617465 	0x6c617465
  3c:	2e342029 	sltiu	s4,s1,8233
  40:	00322e39 	0x322e39
